(dp0
S'pt_genEles_gsfTrks_eta0p8_Gsf0p5'
p1
((lp2
F0.001
aF0.0012589254117941675
aF0.001584893192461114
aF0.001995262314968879
aF0.0025118864315095794
aF0.0031622776601683794
aF0.003981071705534973
aF0.005011872336272725
aF0.00630957344480193
aF0.007943282347242814
aF0.01
aF0.012589254117941675
aF0.01584893192461114
aF0.0199526231496888
aF0.025118864315095808
aF0.03162277660168379
aF0.039810717055349734
aF0.05011872336272725
aF0.06309573444801933
aF0.07943282347242818
aF0.1
aF0.12589254117941676
aF0.15848931924611143
aF0.19952623149688808
aF0.25118864315095824
aF0.31622776601683794
aF0.3981071705534973
aF0.5011872336272725
aF0.6309573444801936
aF0.7943282347242822
aF1.0
aF1.2589254117941675
aF1.584893192461114
aF1.9952623149688808
aF2.5118864315095824
aF3.1622776601683795
aF3.981071705534973
aF5.011872336272725
aF6.309573444801936
aF7.943282347242821
aF10.0
a(lp3
F0.0
aF0.0
aF0.0
aF0.0
aF0.0
aF0.0
aF0.0
aF0.0
aF0.0
aF0.0
aF0.0
aF0.0
aF0.0
aF0.0
aF0.0
aF0.0
aF0.0
aF0.0
aF0.0
aF0.0
aF0.0
aF0.0
aF0.0
aF0.0
aF0.0
aF0.0
aF0.0
aF0.07692307692307693
aF0.10695187165775401
aF0.234375
aF0.24914675767918087
aF0.2585227272727273
aF0.38480392156862747
aF0.3918918918918919
aF0.477326968973747
aF0.5038560411311054
aF0.5671140939597316
aF0.6217391304347826
aF0.7486338797814208
aF0.7872340425531915
aF0.8654970760233918
atp4
sS'pt_genEles_gsfTrks_etaall_Gsf0p5'
p5
((lp6
F0.001
aF0.0012589254117941675
aF0.001584893192461114
aF0.001995262314968879
aF0.0025118864315095794
aF0.0031622776601683794
aF0.003981071705534973
aF0.005011872336272725
aF0.00630957344480193
aF0.007943282347242814
aF0.01
aF0.012589254117941675
aF0.01584893192461114
aF0.0199526231496888
aF0.025118864315095808
aF0.03162277660168379
aF0.039810717055349734
aF0.05011872336272725
aF0.06309573444801933
aF0.07943282347242818
aF0.1
aF0.12589254117941676
aF0.15848931924611143
aF0.19952623149688808
aF0.25118864315095824
aF0.31622776601683794
aF0.3981071705534973
aF0.5011872336272725
aF0.6309573444801936
aF0.7943282347242822
aF1.0
aF1.2589254117941675
aF1.584893192461114
aF1.9952623149688808
aF2.5118864315095824
aF3.1622776601683795
aF3.981071705534973
aF5.011872336272725
aF6.309573444801936
aF7.943282347242821
aF10.0
a(lp7
F0.0
aF0.0
aF0.0
aF0.0
aF0.0
aF0.0
aF0.0
aF0.0
aF0.0
aF0.0
aF0.0
aF0.0
aF0.0
aF0.0
aF0.0
aF0.0
aF0.0
aF0.0
aF0.0
aF0.0
aF0.0
aF0.0
aF0.014492753623188406
aF0.0
aF0.0
aF0.0
aF0.006172839506172839
aF0.07157894736842105
aF0.09922480620155039
aF0.17192982456140352
aF0.1922365988909427
aF0.24154209284028325
aF0.3300561797752809
aF0.3898191560616209
aF0.4453551912568306
aF0.5317700453857791
aF0.5866543095458758
aF0.6839677047289504
aF0.8021806853582555
aF0.8259911894273128
aF0.8812785388127854
atp8
sS'pt_genEles_gsfTrks_eta1p4_Seed1p0'
p9
((lp10
F0.001
aF0.0012589254117941675
aF0.001584893192461114
aF0.001995262314968879
aF0.0025118864315095794
aF0.0031622776601683794
aF0.003981071705534973
aF0.005011872336272725
aF0.00630957344480193
aF0.007943282347242814
aF0.01
aF0.012589254117941675
aF0.01584893192461114
aF0.0199526231496888
aF0.025118864315095808
aF0.03162277660168379
aF0.039810717055349734
aF0.05011872336272725
aF0.06309573444801933
aF0.07943282347242818
aF0.1
aF0.12589254117941676
aF0.15848931924611143
aF0.19952623149688808
aF0.25118864315095824
aF0.31622776601683794
aF0.3981071705534973
aF0.5011872336272725
aF0.6309573444801936
aF0.7943282347242822
aF1.0
aF1.2589254117941675
aF1.584893192461114
aF1.9952623149688808
aF2.5118864315095824
aF3.1622776601683795
aF3.981071705534973
aF5.011872336272725
aF6.309573444801936
aF7.943282347242821
aF10.0
a(lp11
F0.0
aF0.0
aF0.0
aF0.0
aF0.0
aF0.0
aF0.0
aF0.0
aF0.0
aF0.0
aF0.0
aF0.0
aF0.0
aF0.0
aF0.0
aF0.0
aF0.0
aF0.0
aF0.0
aF0.0
aF0.0
aF0.0
aF0.0
aF0.0
aF0.0
aF0.0
aF0.0
aF0.0
aF0.0
aF0.005263157894736842
aF0.09502262443438914
aF0.09885931558935361
aF0.18387096774193548
aF0.1798780487804878
aF0.21678321678321677
aF0.3308550185873606
aF0.3446808510638298
aF0.5317919075144508
aF0.6268656716417911
aF0.7333333333333333
aF0.8273381294964028
atp12
sS'pt_genEles_gsfTrks_eta2p0_Gsf0p5'
p13
((lp14
F0.001
aF0.0012589254117941675
aF0.001584893192461114
aF0.001995262314968879
aF0.0025118864315095794
aF0.0031622776601683794
aF0.003981071705534973
aF0.005011872336272725
aF0.00630957344480193
aF0.007943282347242814
aF0.01
aF0.012589254117941675
aF0.01584893192461114
aF0.0199526231496888
aF0.025118864315095808
aF0.03162277660168379
aF0.039810717055349734
aF0.05011872336272725
aF0.06309573444801933
aF0.07943282347242818
aF0.1
aF0.12589254117941676
aF0.15848931924611143
aF0.19952623149688808
aF0.25118864315095824
aF0.31622776601683794
aF0.3981071705534973
aF0.5011872336272725
aF0.6309573444801936
aF0.7943282347242822
aF1.0
aF1.2589254117941675
aF1.584893192461114
aF1.9952623149688808
aF2.5118864315095824
aF3.1622776601683795
aF3.981071705534973
aF5.011872336272725
aF6.309573444801936
aF7.943282347242821
aF10.0
a(lp15
F0.0
aF0.0
aF0.0
aF0.0
aF0.0
aF0.0
aF0.0
aF0.0
aF0.0
aF0.0
aF0.0
aF0.0
aF0.0
aF0.0
aF0.0
aF0.0
aF0.0
aF0.0
aF0.0
aF0.0
aF0.0
aF0.0
aF0.0
aF0.0
aF0.0
aF0.0
aF0.0
aF0.04225352112676056
aF0.05747126436781609
aF0.059322033898305086
aF0.09032258064516129
aF0.07017543859649122
aF0.11398963730569948
aF0.16279069767441862
aF0.22959183673469388
aF0.3575757575757576
aF0.47863247863247865
aF0.5816326530612245
aF0.8805970149253731
aF0.8545454545454545
aF0.9420289855072463
atp16
sS'pt_genEles_gsfEles_eta0p8_Seed0p5'
p17
((lp18
F0.001
aF0.0012589254117941675
aF0.001584893192461114
aF0.001995262314968879
aF0.0025118864315095794
aF0.0031622776601683794
aF0.003981071705534973
aF0.005011872336272725
aF0.00630957344480193
aF0.007943282347242814
aF0.01
aF0.012589254117941675
aF0.01584893192461114
aF0.0199526231496888
aF0.025118864315095808
aF0.03162277660168379
aF0.039810717055349734
aF0.05011872336272725
aF0.06309573444801933
aF0.07943282347242818
aF0.1
aF0.12589254117941676
aF0.15848931924611143
aF0.19952623149688808
aF0.25118864315095824
aF0.31622776601683794
aF0.3981071705534973
aF0.5011872336272725
aF0.6309573444801936
aF0.7943282347242822
aF1.0
aF1.2589254117941675
aF1.584893192461114
aF1.9952623149688808
aF2.5118864315095824
aF3.1622776601683795
aF3.981071705534973
aF5.011872336272725
aF6.309573444801936
aF7.943282347242821
aF10.0
a(lp19
F0.0
aF0.0
aF0.0
aF0.0
aF0.0
aF0.0
aF0.0
aF0.0
aF0.0
aF0.0
aF0.0
aF0.0
aF0.0
aF0.0
aF0.0
aF0.0
aF0.0
aF0.0
aF0.0
aF0.0
aF0.0
aF0.0
aF0.0
aF0.0
aF0.0
aF0.0
aF0.0
aF0.015267175572519083
aF0.021164021164021163
aF0.03543307086614173
aF0.04040404040404041
aF0.08571428571428572
aF0.18536585365853658
aF0.22675736961451248
aF0.36650485436893204
aF0.4103896103896104
aF0.5
aF0.5807860262008734
aF0.6881720430107527
aF0.7428571428571429
aF0.8081395348837209
atp20
sS'pt_genEles_genTrks_eta2p0_Seed0p5'
p21
((lp22
F0.001
aF0.0012589254117941675
aF0.001584893192461114
aF0.001995262314968879
aF0.0025118864315095794
aF0.0031622776601683794
aF0.003981071705534973
aF0.005011872336272725
aF0.00630957344480193
aF0.007943282347242814
aF0.01
aF0.012589254117941675
aF0.01584893192461114
aF0.0199526231496888
aF0.025118864315095808
aF0.03162277660168379
aF0.039810717055349734
aF0.05011872336272725
aF0.06309573444801933
aF0.07943282347242818
aF0.1
aF0.12589254117941676
aF0.15848931924611143
aF0.19952623149688808
aF0.25118864315095824
aF0.31622776601683794
aF0.3981071705534973
aF0.5011872336272725
aF0.6309573444801936
aF0.7943282347242822
aF1.0
aF1.2589254117941675
aF1.584893192461114
aF1.9952623149688808
aF2.5118864315095824
aF3.1622776601683795
aF3.981071705534973
aF5.011872336272725
aF6.309573444801936
aF7.943282347242821
aF10.0
a(lp23
F0.0
aF0.0
aF0.0
aF0.0
aF0.0
aF0.0
aF0.0
aF0.0
aF0.0
aF0.0
aF0.0
aF0.0
aF0.0
aF0.0
aF0.0
aF0.0
aF0.0
aF0.0
aF0.0
aF0.0
aF0.0
aF0.0
aF0.0
aF0.0
aF0.2777777777777778
aF0.3333333333333333
aF0.4090909090909091
aF0.4027777777777778
aF0.5402298850574713
aF0.5454545454545454
aF0.5935483870967742
aF0.5795454545454546
aF0.6836734693877551
aF0.6842105263157895
aF0.6596858638743456
aF0.7650602409638554
aF0.8151260504201681
aF0.7346938775510204
aF0.8840579710144928
aF0.8571428571428571
aF0.8840579710144928
atp24
sS'pt_genEles_gsfTrks_etaall_Seed2p0'
p25
((lp26
F0.001
aF0.0012589254117941675
aF0.001584893192461114
aF0.001995262314968879
aF0.0025118864315095794
aF0.0031622776601683794
aF0.003981071705534973
aF0.005011872336272725
aF0.00630957344480193
aF0.007943282347242814
aF0.01
aF0.012589254117941675
aF0.01584893192461114
aF0.0199526231496888
aF0.025118864315095808
aF0.03162277660168379
aF0.039810717055349734
aF0.05011872336272725
aF0.06309573444801933
aF0.07943282347242818
aF0.1
aF0.12589254117941676
aF0.15848931924611143
aF0.19952623149688808
aF0.25118864315095824
aF0.31622776601683794
aF0.3981071705534973
aF0.5011872336272725
aF0.6309573444801936
aF0.7943282347242822
aF1.0
aF1.2589254117941675
aF1.584893192461114
aF1.9952623149688808
aF2.5118864315095824
aF3.1622776601683795
aF3.981071705534973
aF5.011872336272725
aF6.309573444801936
aF7.943282347242821
aF10.0
a(lp27
F0.0
aF0.0
aF0.0
aF0.0
aF0.0
aF0.0
aF0.0
aF0.0
aF0.0
aF0.0
aF0.0
aF0.0
aF0.0
aF0.0
aF0.0
aF0.0
aF0.0
aF0.0
aF0.0
aF0.0
aF0.0
aF0.0
aF0.0
aF0.0
aF0.0
aF0.0
aF0.0
aF0.0
aF0.0
aF0.0
aF0.0009242144177449168
aF0.0
aF0.0028089887640449437
aF0.2638981915606162
aF0.39207650273224043
aF0.5052950075642966
aF0.5755329008341057
aF0.6735870818915801
aF0.794392523364486
aF0.8259911894273128
aF0.882800608828006
atp28
sS'pt_genEles_gsfTrks_eta2p0_Seed2p0'
p29
((lp30
F0.001
aF0.0012589254117941675
aF0.001584893192461114
aF0.001995262314968879
aF0.0025118864315095794
aF0.0031622776601683794
aF0.003981071705534973
aF0.005011872336272725
aF0.00630957344480193
aF0.007943282347242814
aF0.01
aF0.012589254117941675
aF0.01584893192461114
aF0.0199526231496888
aF0.025118864315095808
aF0.03162277660168379
aF0.039810717055349734
aF0.05011872336272725
aF0.06309573444801933
aF0.07943282347242818
aF0.1
aF0.12589254117941676
aF0.15848931924611143
aF0.19952623149688808
aF0.25118864315095824
aF0.31622776601683794
aF0.3981071705534973
aF0.5011872336272725
aF0.6309573444801936
aF0.7943282347242822
aF1.0
aF1.2589254117941675
aF1.584893192461114
aF1.9952623149688808
aF2.5118864315095824
aF3.1622776601683795
aF3.981071705534973
aF5.011872336272725
aF6.309573444801936
aF7.943282347242821
aF10.0
a(lp31
F0.0
aF0.0
aF0.0
aF0.0
aF0.0
aF0.0
aF0.0
aF0.0
aF0.0
aF0.0
aF0.0
aF0.0
aF0.0
aF0.0
aF0.0
aF0.0
aF0.0
aF0.0
aF0.0
aF0.0
aF0.0
aF0.0
aF0.0
aF0.0
aF0.0
aF0.0
aF0.0
aF0.0
aF0.0
aF0.0
aF0.0
aF0.0
aF0.0
aF0.06976744186046512
aF0.1377551020408163
aF0.3333333333333333
aF0.4444444444444444
aF0.5714285714285714
aF0.8955223880597015
aF0.8545454545454545
aF0.927536231884058
atp32
sS'pt_genEles_genTrks_eta2p0_Seed1p0'
p33
((lp34
F0.001
aF0.0012589254117941675
aF0.001584893192461114
aF0.001995262314968879
aF0.0025118864315095794
aF0.0031622776601683794
aF0.003981071705534973
aF0.005011872336272725
aF0.00630957344480193
aF0.007943282347242814
aF0.01
aF0.012589254117941675
aF0.01584893192461114
aF0.0199526231496888
aF0.025118864315095808
aF0.03162277660168379
aF0.039810717055349734
aF0.05011872336272725
aF0.06309573444801933
aF0.07943282347242818
aF0.1
aF0.12589254117941676
aF0.15848931924611143
aF0.19952623149688808
aF0.25118864315095824
aF0.31622776601683794
aF0.3981071705534973
aF0.5011872336272725
aF0.6309573444801936
aF0.7943282347242822
aF1.0
aF1.2589254117941675
aF1.584893192461114
aF1.9952623149688808
aF2.5118864315095824
aF3.1622776601683795
aF3.981071705534973
aF5.011872336272725
aF6.309573444801936
aF7.943282347242821
aF10.0
a(lp35
F0.0
aF0.0
aF0.0
aF0.0
aF0.0
aF0.0
aF0.0
aF0.0
aF0.0
aF0.0
aF0.0
aF0.0
aF0.0
aF0.0
aF0.0
aF0.0
aF0.0
aF0.0
aF0.0
aF0.0
aF0.0
aF0.0
aF0.0
aF0.0
aF0.2631578947368421
aF0.36666666666666664
aF0.3953488372093023
aF0.4084507042253521
aF0.5517241379310345
aF0.5423728813559322
aF0.5870967741935483
aF0.5847953216374269
aF0.6994818652849741
aF0.6744186046511628
aF0.6632653061224489
aF0.7696969696969697
aF0.811965811965812
aF0.7448979591836735
aF0.8805970149253731
aF0.8727272727272727
aF0.8985507246376812
atp36
sS'pt_genEles_gsfEles_eta0p8_Seed2p0'
p37
((lp38
F0.001
aF0.0012589254117941675
aF0.001584893192461114
aF0.001995262314968879
aF0.0025118864315095794
aF0.0031622776601683794
aF0.003981071705534973
aF0.005011872336272725
aF0.00630957344480193
aF0.007943282347242814
aF0.01
aF0.012589254117941675
aF0.01584893192461114
aF0.0199526231496888
aF0.025118864315095808
aF0.03162277660168379
aF0.039810717055349734
aF0.05011872336272725
aF0.06309573444801933
aF0.07943282347242818
aF0.1
aF0.12589254117941676
aF0.15848931924611143
aF0.19952623149688808
aF0.25118864315095824
aF0.31622776601683794
aF0.3981071705534973
aF0.5011872336272725
aF0.6309573444801936
aF0.7943282347242822
aF1.0
aF1.2589254117941675
aF1.584893192461114
aF1.9952623149688808
aF2.5118864315095824
aF3.1622776601683795
aF3.981071705534973
aF5.011872336272725
aF6.309573444801936
aF7.943282347242821
aF10.0
a(lp39
F0.0
aF0.0
aF0.0
aF0.0
aF0.0
aF0.0
aF0.0
aF0.0
aF0.0
aF0.0
aF0.0
aF0.0
aF0.0
aF0.0
aF0.0
aF0.0
aF0.0
aF0.0
aF0.0
aF0.0
aF0.0
aF0.0
aF0.0
aF0.0
aF0.0
aF0.0
aF0.0
aF0.0
aF0.0
aF0.0
aF0.0
aF0.0
aF0.0
aF0.2028301886792453
aF0.35096153846153844
aF0.4027777777777778
aF0.5032258064516129
aF0.5517241379310345
aF0.69
aF0.6976744186046512
aF0.8117647058823529
atp40
sS'pt_genEles_gsfEles_eta0p8_Seed1p0'
p41
((lp42
F0.001
aF0.0012589254117941675
aF0.001584893192461114
aF0.001995262314968879
aF0.0025118864315095794
aF0.0031622776601683794
aF0.003981071705534973
aF0.005011872336272725
aF0.00630957344480193
aF0.007943282347242814
aF0.01
aF0.012589254117941675
aF0.01584893192461114
aF0.0199526231496888
aF0.025118864315095808
aF0.03162277660168379
aF0.039810717055349734
aF0.05011872336272725
aF0.06309573444801933
aF0.07943282347242818
aF0.1
aF0.12589254117941676
aF0.15848931924611143
aF0.19952623149688808
aF0.25118864315095824
aF0.31622776601683794
aF0.3981071705534973
aF0.5011872336272725
aF0.6309573444801936
aF0.7943282347242822
aF1.0
aF1.2589254117941675
aF1.584893192461114
aF1.9952623149688808
aF2.5118864315095824
aF3.1622776601683795
aF3.981071705534973
aF5.011872336272725
aF6.309573444801936
aF7.943282347242821
aF10.0
a(lp43
F0.0
aF0.0
aF0.0
aF0.0
aF0.0
aF0.0
aF0.0
aF0.0
aF0.0
aF0.0
aF0.0
aF0.0
aF0.0
aF0.0
aF0.0
aF0.0
aF0.0
aF0.0
aF0.0
aF0.0
aF0.0
aF0.0
aF0.0
aF0.0
aF0.0
aF0.0
aF0.0
aF0.0
aF0.0
aF0.0
aF0.03754266211604096
aF0.09943181818181818
aF0.16911764705882354
aF0.22747747747747749
aF0.36515513126491644
aF0.4190231362467866
aF0.5
aF0.5782608695652174
aF0.6830601092896175
aF0.7446808510638298
aF0.8187134502923976
atp44
sS'pt_genEles_genTrks_eta1p4_Seed0p5'
p45
((lp46
F0.001
aF0.0012589254117941675
aF0.001584893192461114
aF0.001995262314968879
aF0.0025118864315095794
aF0.0031622776601683794
aF0.003981071705534973
aF0.005011872336272725
aF0.00630957344480193
aF0.007943282347242814
aF0.01
aF0.012589254117941675
aF0.01584893192461114
aF0.0199526231496888
aF0.025118864315095808
aF0.03162277660168379
aF0.039810717055349734
aF0.05011872336272725
aF0.06309573444801933
aF0.07943282347242818
aF0.1
aF0.12589254117941676
aF0.15848931924611143
aF0.19952623149688808
aF0.25118864315095824
aF0.31622776601683794
aF0.3981071705534973
aF0.5011872336272725
aF0.6309573444801936
aF0.7943282347242822
aF1.0
aF1.2589254117941675
aF1.584893192461114
aF1.9952623149688808
aF2.5118864315095824
aF3.1622776601683795
aF3.981071705534973
aF5.011872336272725
aF6.309573444801936
aF7.943282347242821
aF10.0
a(lp47
F0.0
aF0.0
aF0.0
aF0.0
aF0.0
aF0.0
aF0.0
aF0.0
aF0.0
aF0.0
aF0.0
aF0.0
aF0.0
aF0.0
aF0.0
aF0.0
aF0.0
aF0.0
aF0.0
aF0.0
aF0.0
aF0.125
aF0.07692307692307693
aF0.43478260869565216
aF0.2222222222222222
aF0.3488372093023256
aF0.5384615384615384
aF0.5319148936170213
aF0.5317460317460317
aF0.5736842105263158
aF0.65
aF0.6022727272727273
aF0.7171052631578947
aF0.6951219512195121
aF0.7455197132616488
aF0.746268656716418
aF0.7238493723849372
aF0.7294117647058823
aF0.7205882352941176
aF0.8160919540229885
aF0.8071428571428572
atp48
sS'pt_genEles_genTrks_eta0p0_Gsf0p5'
p49
((lp50
F0.001
aF0.0012589254117941675
aF0.001584893192461114
aF0.001995262314968879
aF0.0025118864315095794
aF0.0031622776601683794
aF0.003981071705534973
aF0.005011872336272725
aF0.00630957344480193
aF0.007943282347242814
aF0.01
aF0.012589254117941675
aF0.01584893192461114
aF0.0199526231496888
aF0.025118864315095808
aF0.03162277660168379
aF0.039810717055349734
aF0.05011872336272725
aF0.06309573444801933
aF0.07943282347242818
aF0.1
aF0.12589254117941676
aF0.15848931924611143
aF0.19952623149688808
aF0.25118864315095824
aF0.31622776601683794
aF0.3981071705534973
aF0.5011872336272725
aF0.6309573444801936
aF0.7943282347242822
aF1.0
aF1.2589254117941675
aF1.584893192461114
aF1.9952623149688808
aF2.5118864315095824
aF3.1622776601683795
aF3.981071705534973
aF5.011872336272725
aF6.309573444801936
aF7.943282347242821
aF10.0
a(lp51
F0.0
aF0.0
aF0.0
aF0.0
aF0.0
aF0.0
aF0.0
aF0.0
aF0.0
aF0.0
aF0.0
aF0.0
aF0.0
aF0.0
aF0.0
aF0.0
aF0.0
aF0.0
aF0.0
aF0.0
aF0.0
aF0.2222222222222222
aF0.18181818181818182
aF0.5428571428571428
aF0.4423076923076923
aF0.6176470588235294
aF0.6923076923076923
aF0.8111111111111111
aF0.8530612244897959
aF0.8865979381443299
aF0.8837772397094431
aF0.8948453608247423
aF0.8732943469785575
aF0.9216757741347905
aF0.8934280639431617
aF0.9178356713426854
aF0.9254079254079254
aF0.9398907103825137
aF0.937984496124031
aF0.9404761904761905
aF0.9568345323741008
atp52
sS'pt_genEles_gsfEles_eta0p0_Gsf0p5'
p53
((lp54
F0.001
aF0.0012589254117941675
aF0.001584893192461114
aF0.001995262314968879
aF0.0025118864315095794
aF0.0031622776601683794
aF0.003981071705534973
aF0.005011872336272725
aF0.00630957344480193
aF0.007943282347242814
aF0.01
aF0.012589254117941675
aF0.01584893192461114
aF0.0199526231496888
aF0.025118864315095808
aF0.03162277660168379
aF0.039810717055349734
aF0.05011872336272725
aF0.06309573444801933
aF0.07943282347242818
aF0.1
aF0.12589254117941676
aF0.15848931924611143
aF0.19952623149688808
aF0.25118864315095824
aF0.31622776601683794
aF0.3981071705534973
aF0.5011872336272725
aF0.6309573444801936
aF0.7943282347242822
aF1.0
aF1.2589254117941675
aF1.584893192461114
aF1.9952623149688808
aF2.5118864315095824
aF3.1622776601683795
aF3.981071705534973
aF5.011872336272725
aF6.309573444801936
aF7.943282347242821
aF10.0
a(lp55
F0.0
aF0.0
aF0.0
aF0.0
aF0.0
aF0.0
aF0.0
aF0.0
aF0.0
aF0.0
aF0.0
aF0.0
aF0.0
aF0.0
aF0.0
aF0.0
aF0.0
aF0.0
aF0.0
aF0.0
aF0.0
aF0.0
aF0.0
aF0.0
aF0.0
aF0.0
aF0.0
aF0.016666666666666666
aF0.024489795918367346
aF0.048109965635738834
aF0.09443099273607748
aF0.22268041237113403
aF0.3313840155945419
aF0.45719489981785066
aF0.5310834813499112
aF0.627254509018036
aF0.696969696969697
aF0.7841530054644809
aF0.8449612403100775
aF0.8511904761904762
aF0.8273381294964028
atp56
sS'pt_genEles_gsfTrks_eta0p0_Seed2p0'
p57
((lp58
F0.001
aF0.0012589254117941675
aF0.001584893192461114
aF0.001995262314968879
aF0.0025118864315095794
aF0.0031622776601683794
aF0.003981071705534973
aF0.005011872336272725
aF0.00630957344480193
aF0.007943282347242814
aF0.01
aF0.012589254117941675
aF0.01584893192461114
aF0.0199526231496888
aF0.025118864315095808
aF0.03162277660168379
aF0.039810717055349734
aF0.05011872336272725
aF0.06309573444801933
aF0.07943282347242818
aF0.1
aF0.12589254117941676
aF0.15848931924611143
aF0.19952623149688808
aF0.25118864315095824
aF0.31622776601683794
aF0.3981071705534973
aF0.5011872336272725
aF0.6309573444801936
aF0.7943282347242822
aF1.0
aF1.2589254117941675
aF1.584893192461114
aF1.9952623149688808
aF2.5118864315095824
aF3.1622776601683795
aF3.981071705534973
aF5.011872336272725
aF6.309573444801936
aF7.943282347242821
aF10.0
a(lp59
F0.0
aF0.0
aF0.0
aF0.0
aF0.0
aF0.0
aF0.0
aF0.0
aF0.0
aF0.0
aF0.0
aF0.0
aF0.0
aF0.0
aF0.0
aF0.0
aF0.0
aF0.0
aF0.0
aF0.0
aF0.0
aF0.0
aF0.0
aF0.0
aF0.0
aF0.0
aF0.0
aF0.0
aF0.0
aF0.0
aF0.0
aF0.0
aF0.001949317738791423
aF0.4353369763205829
aF0.5630550621669627
aF0.687374749498998
aF0.7552447552447552
aF0.8142076502732241
aF0.9069767441860465
aF0.8988095238095238
aF0.9064748201438849
atp60
sS'pt_genEles_genTrks_eta2p0_Seed2p0'
p61
((lp62
F0.001
aF0.0012589254117941675
aF0.001584893192461114
aF0.001995262314968879
aF0.0025118864315095794
aF0.0031622776601683794
aF0.003981071705534973
aF0.005011872336272725
aF0.00630957344480193
aF0.007943282347242814
aF0.01
aF0.012589254117941675
aF0.01584893192461114
aF0.0199526231496888
aF0.025118864315095808
aF0.03162277660168379
aF0.039810717055349734
aF0.05011872336272725
aF0.06309573444801933
aF0.07943282347242818
aF0.1
aF0.12589254117941676
aF0.15848931924611143
aF0.19952623149688808
aF0.25118864315095824
aF0.31622776601683794
aF0.3981071705534973
aF0.5011872336272725
aF0.6309573444801936
aF0.7943282347242822
aF1.0
aF1.2589254117941675
aF1.584893192461114
aF1.9952623149688808
aF2.5118864315095824
aF3.1622776601683795
aF3.981071705534973
aF5.011872336272725
aF6.309573444801936
aF7.943282347242821
aF10.0
a(lp63
F0.0
aF0.0
aF0.0
aF0.0
aF0.0
aF0.0
aF0.0
aF0.0
aF0.0
aF0.0
aF0.0
aF0.0
aF0.0
aF0.0
aF0.0
aF0.0
aF0.0
aF0.0
aF0.0
aF0.0
aF0.0
aF0.0
aF0.0
aF0.0
aF0.2631578947368421
aF0.36666666666666664
aF0.3953488372093023
aF0.4084507042253521
aF0.5517241379310345
aF0.5423728813559322
aF0.5870967741935483
aF0.5847953216374269
aF0.6994818652849741
aF0.6744186046511628
aF0.6632653061224489
aF0.7696969696969697
aF0.811965811965812
aF0.7448979591836735
aF0.8805970149253731
aF0.8727272727272727
aF0.8985507246376812
atp64
sS'pt_genEles_genTrks_etaall_Seed2p0'
p65
((lp66
F0.001
aF0.0012589254117941675
aF0.001584893192461114
aF0.001995262314968879
aF0.0025118864315095794
aF0.0031622776601683794
aF0.003981071705534973
aF0.005011872336272725
aF0.00630957344480193
aF0.007943282347242814
aF0.01
aF0.012589254117941675
aF0.01584893192461114
aF0.0199526231496888
aF0.025118864315095808
aF0.03162277660168379
aF0.039810717055349734
aF0.05011872336272725
aF0.06309573444801933
aF0.07943282347242818
aF0.1
aF0.12589254117941676
aF0.15848931924611143
aF0.19952623149688808
aF0.25118864315095824
aF0.31622776601683794
aF0.3981071705534973
aF0.5011872336272725
aF0.6309573444801936
aF0.7943282347242822
aF1.0
aF1.2589254117941675
aF1.584893192461114
aF1.9952623149688808
aF2.5118864315095824
aF3.1622776601683795
aF3.981071705534973
aF5.011872336272725
aF6.309573444801936
aF7.943282347242821
aF10.0
a(lp67
F0.0
aF0.0
aF0.0
aF0.0
aF0.0
aF0.0
aF0.0
aF0.0
aF0.0
aF0.0
aF0.0
aF0.0
aF0.0
aF0.0
aF0.0
aF0.0
aF0.0
aF0.0
aF0.0
aF0.0
aF0.0
aF0.11538461538461539
aF0.13043478260869565
aF0.3894736842105263
aF0.36666666666666664
aF0.4644808743169399
aF0.5679012345679012
aF0.64
aF0.6976744186046512
aF0.7169590643274854
aF0.7569316081330869
aF0.7474429583005507
aF0.7935393258426966
aF0.7943737441393168
aF0.8107923497267759
aF0.8275340393343419
aF0.8341056533827618
aF0.8477508650519031
aF0.8535825545171339
aF0.8612334801762115
aF0.9010654490106544
atp68
sS'pt_genEles_gsfTrks_eta0p8_Seed1p0'
p69
((lp70
F0.001
aF0.0012589254117941675
aF0.001584893192461114
aF0.001995262314968879
aF0.0025118864315095794
aF0.0031622776601683794
aF0.003981071705534973
aF0.005011872336272725
aF0.00630957344480193
aF0.007943282347242814
aF0.01
aF0.012589254117941675
aF0.01584893192461114
aF0.0199526231496888
aF0.025118864315095808
aF0.03162277660168379
aF0.039810717055349734
aF0.05011872336272725
aF0.06309573444801933
aF0.07943282347242818
aF0.1
aF0.12589254117941676
aF0.15848931924611143
aF0.19952623149688808
aF0.25118864315095824
aF0.31622776601683794
aF0.3981071705534973
aF0.5011872336272725
aF0.6309573444801936
aF0.7943282347242822
aF1.0
aF1.2589254117941675
aF1.584893192461114
aF1.9952623149688808
aF2.5118864315095824
aF3.1622776601683795
aF3.981071705534973
aF5.011872336272725
aF6.309573444801936
aF7.943282347242821
aF10.0
a(lp71
F0.0
aF0.0
aF0.0
aF0.0
aF0.0
aF0.0
aF0.0
aF0.0
aF0.0
aF0.0
aF0.0
aF0.0
aF0.0
aF0.0
aF0.0
aF0.0
aF0.0
aF0.0
aF0.0
aF0.0
aF0.0
aF0.0
aF0.0
aF0.0
aF0.0
aF0.0
aF0.0
aF0.0
aF0.0
aF0.015625
aF0.17064846416382254
aF0.2556818181818182
aF0.37745098039215685
aF0.3738738738738739
aF0.47494033412887826
aF0.5038560411311054
aF0.5704697986577181
aF0.6217391304347826
aF0.7377049180327869
aF0.7872340425531915
aF0.8771929824561403
atp72
sS'pt_genEles_gsfEles_eta2p0_Gsf0p5'
p73
((lp74
F0.001
aF0.0012589254117941675
aF0.001584893192461114
aF0.001995262314968879
aF0.0025118864315095794
aF0.0031622776601683794
aF0.003981071705534973
aF0.005011872336272725
aF0.00630957344480193
aF0.007943282347242814
aF0.01
aF0.012589254117941675
aF0.01584893192461114
aF0.0199526231496888
aF0.025118864315095808
aF0.03162277660168379
aF0.039810717055349734
aF0.05011872336272725
aF0.06309573444801933
aF0.07943282347242818
aF0.1
aF0.12589254117941676
aF0.15848931924611143
aF0.19952623149688808
aF0.25118864315095824
aF0.31622776601683794
aF0.3981071705534973
aF0.5011872336272725
aF0.6309573444801936
aF0.7943282347242822
aF1.0
aF1.2589254117941675
aF1.584893192461114
aF1.9952623149688808
aF2.5118864315095824
aF3.1622776601683795
aF3.981071705534973
aF5.011872336272725
aF6.309573444801936
aF7.943282347242821
aF10.0
a(lp75
F0.0
aF0.0
aF0.0
aF0.0
aF0.0
aF0.0
aF0.0
aF0.0
aF0.0
aF0.0
aF0.0
aF0.0
aF0.0
aF0.0
aF0.0
aF0.0
aF0.0
aF0.0
aF0.0
aF0.0
aF0.0
aF0.0
aF0.0
aF0.0
aF0.0
aF0.0
aF0.0
aF0.0
aF0.0
aF0.0
aF0.0064516129032258064
aF0.011695906432748537
aF0.010362694300518135
aF0.06976744186046512
aF0.1326530612244898
aF0.18181818181818182
aF0.358974358974359
aF0.5
aF0.7910447761194029
aF0.7454545454545455
aF0.8840579710144928
atp76
sS'pt_genEles_genTrks_eta0p8_Gsf0p5'
p77
((lp78
F0.001
aF0.0012589254117941675
aF0.001584893192461114
aF0.001995262314968879
aF0.0025118864315095794
aF0.0031622776601683794
aF0.003981071705534973
aF0.005011872336272725
aF0.00630957344480193
aF0.007943282347242814
aF0.01
aF0.012589254117941675
aF0.01584893192461114
aF0.0199526231496888
aF0.025118864315095808
aF0.03162277660168379
aF0.039810717055349734
aF0.05011872336272725
aF0.06309573444801933
aF0.07943282347242818
aF0.1
aF0.12589254117941676
aF0.15848931924611143
aF0.19952623149688808
aF0.25118864315095824
aF0.31622776601683794
aF0.3981071705534973
aF0.5011872336272725
aF0.6309573444801936
aF0.7943282347242822
aF1.0
aF1.2589254117941675
aF1.584893192461114
aF1.9952623149688808
aF2.5118864315095824
aF3.1622776601683795
aF3.981071705534973
aF5.011872336272725
aF6.309573444801936
aF7.943282347242821
aF10.0
a(lp79
F0.0
aF0.0
aF0.0
aF0.0
aF0.0
aF0.0
aF0.0
aF0.0
aF0.0
aF0.0
aF0.0
aF0.0
aF0.0
aF0.0
aF0.0
aF0.0
aF0.0
aF0.0
aF0.0
aF0.0
aF0.0
aF0.0
aF0.14814814814814814
aF0.3333333333333333
aF0.4
aF0.3953488372093023
aF0.5057471264367817
aF0.6076923076923076
aF0.6737967914438503
aF0.71484375
aF0.7474402730375427
aF0.7244318181818182
aF0.7965686274509803
aF0.7545045045045045
aF0.8114558472553699
aF0.7969151670951157
aF0.802013422818792
aF0.8347826086956521
aF0.8306010928961749
aF0.7943262411347518
aF0.8888888888888888
atp80
sS'pt_genEles_genTrks_eta0p8_Seed2p0'
p81
((lp82
F0.001
aF0.0012589254117941675
aF0.001584893192461114
aF0.001995262314968879
aF0.0025118864315095794
aF0.0031622776601683794
aF0.003981071705534973
aF0.005011872336272725
aF0.00630957344480193
aF0.007943282347242814
aF0.01
aF0.012589254117941675
aF0.01584893192461114
aF0.0199526231496888
aF0.025118864315095808
aF0.03162277660168379
aF0.039810717055349734
aF0.05011872336272725
aF0.06309573444801933
aF0.07943282347242818
aF0.1
aF0.12589254117941676
aF0.15848931924611143
aF0.19952623149688808
aF0.25118864315095824
aF0.31622776601683794
aF0.3981071705534973
aF0.5011872336272725
aF0.6309573444801936
aF0.7943282347242822
aF1.0
aF1.2589254117941675
aF1.584893192461114
aF1.9952623149688808
aF2.5118864315095824
aF3.1622776601683795
aF3.981071705534973
aF5.011872336272725
aF6.309573444801936
aF7.943282347242821
aF10.0
a(lp83
F0.0
aF0.0
aF0.0
aF0.0
aF0.0
aF0.0
aF0.0
aF0.0
aF0.0
aF0.0
aF0.0
aF0.0
aF0.0
aF0.0
aF0.0
aF0.0
aF0.0
aF0.0
aF0.0
aF0.0
aF0.0
aF0.0
aF0.14814814814814814
aF0.3333333333333333
aF0.4
aF0.3953488372093023
aF0.5057471264367817
aF0.6076923076923076
aF0.6737967914438503
aF0.71484375
aF0.7474402730375427
aF0.7244318181818182
aF0.7965686274509803
aF0.7545045045045045
aF0.8114558472553699
aF0.7969151670951157
aF0.802013422818792
aF0.8347826086956521
aF0.8306010928961749
aF0.7943262411347518
aF0.8888888888888888
atp84
sS'pt_genEles_gsfEles_eta2p0_Seed2p0'
p85
((lp86
F0.001
aF0.0012589254117941675
aF0.001584893192461114
aF0.001995262314968879
aF0.0025118864315095794
aF0.0031622776601683794
aF0.003981071705534973
aF0.005011872336272725
aF0.00630957344480193
aF0.007943282347242814
aF0.01
aF0.012589254117941675
aF0.01584893192461114
aF0.0199526231496888
aF0.025118864315095808
aF0.03162277660168379
aF0.039810717055349734
aF0.05011872336272725
aF0.06309573444801933
aF0.07943282347242818
aF0.1
aF0.12589254117941676
aF0.15848931924611143
aF0.19952623149688808
aF0.25118864315095824
aF0.31622776601683794
aF0.3981071705534973
aF0.5011872336272725
aF0.6309573444801936
aF0.7943282347242822
aF1.0
aF1.2589254117941675
aF1.584893192461114
aF1.9952623149688808
aF2.5118864315095824
aF3.1622776601683795
aF3.981071705534973
aF5.011872336272725
aF6.309573444801936
aF7.943282347242821
aF10.0
a(lp87
F0.0
aF0.0
aF0.0
aF0.0
aF0.0
aF0.0
aF0.0
aF0.0
aF0.0
aF0.0
aF0.0
aF0.0
aF0.0
aF0.0
aF0.0
aF0.0
aF0.0
aF0.0
aF0.0
aF0.0
aF0.0
aF0.0
aF0.0
aF0.0
aF0.0
aF0.0
aF0.0
aF0.0
aF0.0
aF0.0
aF0.0
aF0.0
aF0.0
aF0.022727272727272728
aF0.07142857142857142
aF0.2222222222222222
aF0.38235294117647056
aF0.40816326530612246
aF0.8205128205128205
aF0.6896551724137931
aF0.8529411764705882
atp88
sS'pt_genEles_gsfEles_eta0p0_Seed2p0'
p89
((lp90
F0.001
aF0.0012589254117941675
aF0.001584893192461114
aF0.001995262314968879
aF0.0025118864315095794
aF0.0031622776601683794
aF0.003981071705534973
aF0.005011872336272725
aF0.00630957344480193
aF0.007943282347242814
aF0.01
aF0.012589254117941675
aF0.01584893192461114
aF0.0199526231496888
aF0.025118864315095808
aF0.03162277660168379
aF0.039810717055349734
aF0.05011872336272725
aF0.06309573444801933
aF0.07943282347242818
aF0.1
aF0.12589254117941676
aF0.15848931924611143
aF0.19952623149688808
aF0.25118864315095824
aF0.31622776601683794
aF0.3981071705534973
aF0.5011872336272725
aF0.6309573444801936
aF0.7943282347242822
aF1.0
aF1.2589254117941675
aF1.584893192461114
aF1.9952623149688808
aF2.5118864315095824
aF3.1622776601683795
aF3.981071705534973
aF5.011872336272725
aF6.309573444801936
aF7.943282347242821
aF10.0
a(lp91
F0.0
aF0.0
aF0.0
aF0.0
aF0.0
aF0.0
aF0.0
aF0.0
aF0.0
aF0.0
aF0.0
aF0.0
aF0.0
aF0.0
aF0.0
aF0.0
aF0.0
aF0.0
aF0.0
aF0.0
aF0.0
aF0.0
aF0.0
aF0.0
aF0.0
aF0.0
aF0.0
aF0.0
aF0.0
aF0.0
aF0.0
aF0.0
aF0.0036363636363636364
aF0.3299319727891156
aF0.4581818181818182
aF0.6887966804979253
aF0.7
aF0.7910447761194029
aF0.8270676691729323
aF0.8865979381443299
aF0.851063829787234
atp92
sS'pt_genEles_genTrks_eta1p4_Seed2p0'
p93
((lp94
F0.001
aF0.0012589254117941675
aF0.001584893192461114
aF0.001995262314968879
aF0.0025118864315095794
aF0.0031622776601683794
aF0.003981071705534973
aF0.005011872336272725
aF0.00630957344480193
aF0.007943282347242814
aF0.01
aF0.012589254117941675
aF0.01584893192461114
aF0.0199526231496888
aF0.025118864315095808
aF0.03162277660168379
aF0.039810717055349734
aF0.05011872336272725
aF0.06309573444801933
aF0.07943282347242818
aF0.1
aF0.12589254117941676
aF0.15848931924611143
aF0.19952623149688808
aF0.25118864315095824
aF0.31622776601683794
aF0.3981071705534973
aF0.5011872336272725
aF0.6309573444801936
aF0.7943282347242822
aF1.0
aF1.2589254117941675
aF1.584893192461114
aF1.9952623149688808
aF2.5118864315095824
aF3.1622776601683795
aF3.981071705534973
aF5.011872336272725
aF6.309573444801936
aF7.943282347242821
aF10.0
a(lp95
F0.0
aF0.0
aF0.0
aF0.0
aF0.0
aF0.0
aF0.0
aF0.0
aF0.0
aF0.0
aF0.0
aF0.0
aF0.0
aF0.0
aF0.0
aF0.0
aF0.0
aF0.0
aF0.0
aF0.0
aF0.0
aF0.125
aF0.07692307692307693
aF0.4090909090909091
aF0.21052631578947367
aF0.35714285714285715
aF0.5454545454545454
aF0.5319148936170213
aF0.5317460317460317
aF0.5684210526315789
aF0.6515837104072398
aF0.6121673003802282
aF0.7161290322580646
aF0.698170731707317
aF0.7482517482517482
aF0.7397769516728625
aF0.7191489361702128
aF0.7283236994219653
aF0.7089552238805971
aF0.8111111111111111
aF0.8057553956834532
atp96
sS'pt_genEles_gsfTrks_eta0p0_Gsf0p5'
p97
((lp98
F0.001
aF0.0012589254117941675
aF0.001584893192461114
aF0.001995262314968879
aF0.0025118864315095794
aF0.0031622776601683794
aF0.003981071705534973
aF0.005011872336272725
aF0.00630957344480193
aF0.007943282347242814
aF0.01
aF0.012589254117941675
aF0.01584893192461114
aF0.0199526231496888
aF0.025118864315095808
aF0.03162277660168379
aF0.039810717055349734
aF0.05011872336272725
aF0.06309573444801933
aF0.07943282347242818
aF0.1
aF0.12589254117941676
aF0.15848931924611143
aF0.19952623149688808
aF0.25118864315095824
aF0.31622776601683794
aF0.3981071705534973
aF0.5011872336272725
aF0.6309573444801936
aF0.7943282347242822
aF1.0
aF1.2589254117941675
aF1.584893192461114
aF1.9952623149688808
aF2.5118864315095824
aF3.1622776601683795
aF3.981071705534973
aF5.011872336272725
aF6.309573444801936
aF7.943282347242821
aF10.0
a(lp99
F0.0
aF0.0
aF0.0
aF0.0
aF0.0
aF0.0
aF0.0
aF0.0
aF0.0
aF0.0
aF0.0
aF0.0
aF0.0
aF0.0
aF0.0
aF0.0
aF0.0
aF0.0
aF0.0
aF0.0
aF0.0
aF0.0
aF0.0
aF0.0
aF0.0
aF0.0
aF0.008547008547008548
aF0.07777777777777778
aF0.10204081632653061
aF0.20618556701030927
aF0.2179176755447942
aF0.354639175257732
aF0.4600389863547758
aF0.575591985428051
aF0.61101243339254
aF0.7154308617234469
aF0.7622377622377622
aF0.8224043715846995
aF0.9147286821705426
aF0.8988095238095238
aF0.9028776978417267
atp100
sS'pt_genEles_genTrks_eta1p4_Gsf0p5'
p101
((lp102
F0.001
aF0.0012589254117941675
aF0.001584893192461114
aF0.001995262314968879
aF0.0025118864315095794
aF0.0031622776601683794
aF0.003981071705534973
aF0.005011872336272725
aF0.00630957344480193
aF0.007943282347242814
aF0.01
aF0.012589254117941675
aF0.01584893192461114
aF0.0199526231496888
aF0.025118864315095808
aF0.03162277660168379
aF0.039810717055349734
aF0.05011872336272725
aF0.06309573444801933
aF0.07943282347242818
aF0.1
aF0.12589254117941676
aF0.15848931924611143
aF0.19952623149688808
aF0.25118864315095824
aF0.31622776601683794
aF0.3981071705534973
aF0.5011872336272725
aF0.6309573444801936
aF0.7943282347242822
aF1.0
aF1.2589254117941675
aF1.584893192461114
aF1.9952623149688808
aF2.5118864315095824
aF3.1622776601683795
aF3.981071705534973
aF5.011872336272725
aF6.309573444801936
aF7.943282347242821
aF10.0
a(lp103
F0.0
aF0.0
aF0.0
aF0.0
aF0.0
aF0.0
aF0.0
aF0.0
aF0.0
aF0.0
aF0.0
aF0.0
aF0.0
aF0.0
aF0.0
aF0.0
aF0.0
aF0.0
aF0.0
aF0.0
aF0.0
aF0.125
aF0.07692307692307693
aF0.4090909090909091
aF0.21052631578947367
aF0.35714285714285715
aF0.5454545454545454
aF0.5319148936170213
aF0.5317460317460317
aF0.5684210526315789
aF0.6515837104072398
aF0.6121673003802282
aF0.7161290322580646
aF0.698170731707317
aF0.7482517482517482
aF0.7397769516728625
aF0.7191489361702128
aF0.7283236994219653
aF0.7089552238805971
aF0.8111111111111111
aF0.8057553956834532
atp104
sS'pt_genEles_gsfEles_eta2p0_Seed1p0'
p105
((lp106
F0.001
aF0.0012589254117941675
aF0.001584893192461114
aF0.001995262314968879
aF0.0025118864315095794
aF0.0031622776601683794
aF0.003981071705534973
aF0.005011872336272725
aF0.00630957344480193
aF0.007943282347242814
aF0.01
aF0.012589254117941675
aF0.01584893192461114
aF0.0199526231496888
aF0.025118864315095808
aF0.03162277660168379
aF0.039810717055349734
aF0.05011872336272725
aF0.06309573444801933
aF0.07943282347242818
aF0.1
aF0.12589254117941676
aF0.15848931924611143
aF0.19952623149688808
aF0.25118864315095824
aF0.31622776601683794
aF0.3981071705534973
aF0.5011872336272725
aF0.6309573444801936
aF0.7943282347242822
aF1.0
aF1.2589254117941675
aF1.584893192461114
aF1.9952623149688808
aF2.5118864315095824
aF3.1622776601683795
aF3.981071705534973
aF5.011872336272725
aF6.309573444801936
aF7.943282347242821
aF10.0
a(lp107
F0.0
aF0.0
aF0.0
aF0.0
aF0.0
aF0.0
aF0.0
aF0.0
aF0.0
aF0.0
aF0.0
aF0.0
aF0.0
aF0.0
aF0.0
aF0.0
aF0.0
aF0.0
aF0.0
aF0.0
aF0.0
aF0.0
aF0.0
aF0.0
aF0.0
aF0.0
aF0.0
aF0.0
aF0.0
aF0.0
aF0.0064516129032258064
aF0.017543859649122806
aF0.0051813471502590676
aF0.06976744186046512
aF0.11224489795918367
aF0.19393939393939394
aF0.3333333333333333
aF0.5
aF0.8059701492537313
aF0.7636363636363637
aF0.8695652173913043
atp108
sS'pt_genEles_genTrks_eta1p4_Seed1p0'
p109
((lp110
F0.001
aF0.0012589254117941675
aF0.001584893192461114
aF0.001995262314968879
aF0.0025118864315095794
aF0.0031622776601683794
aF0.003981071705534973
aF0.005011872336272725
aF0.00630957344480193
aF0.007943282347242814
aF0.01
aF0.012589254117941675
aF0.01584893192461114
aF0.0199526231496888
aF0.025118864315095808
aF0.03162277660168379
aF0.039810717055349734
aF0.05011872336272725
aF0.06309573444801933
aF0.07943282347242818
aF0.1
aF0.12589254117941676
aF0.15848931924611143
aF0.19952623149688808
aF0.25118864315095824
aF0.31622776601683794
aF0.3981071705534973
aF0.5011872336272725
aF0.6309573444801936
aF0.7943282347242822
aF1.0
aF1.2589254117941675
aF1.584893192461114
aF1.9952623149688808
aF2.5118864315095824
aF3.1622776601683795
aF3.981071705534973
aF5.011872336272725
aF6.309573444801936
aF7.943282347242821
aF10.0
a(lp111
F0.0
aF0.0
aF0.0
aF0.0
aF0.0
aF0.0
aF0.0
aF0.0
aF0.0
aF0.0
aF0.0
aF0.0
aF0.0
aF0.0
aF0.0
aF0.0
aF0.0
aF0.0
aF0.0
aF0.0
aF0.0
aF0.125
aF0.07692307692307693
aF0.4090909090909091
aF0.21052631578947367
aF0.35714285714285715
aF0.5454545454545454
aF0.5319148936170213
aF0.5317460317460317
aF0.5684210526315789
aF0.6515837104072398
aF0.6121673003802282
aF0.7161290322580646
aF0.698170731707317
aF0.7482517482517482
aF0.7397769516728625
aF0.7191489361702128
aF0.7283236994219653
aF0.7089552238805971
aF0.8111111111111111
aF0.8057553956834532
atp112
sS'pt_genEles_gsfEles_eta1p4_Seed1p0'
p113
((lp114
F0.001
aF0.0012589254117941675
aF0.001584893192461114
aF0.001995262314968879
aF0.0025118864315095794
aF0.0031622776601683794
aF0.003981071705534973
aF0.005011872336272725
aF0.00630957344480193
aF0.007943282347242814
aF0.01
aF0.012589254117941675
aF0.01584893192461114
aF0.0199526231496888
aF0.025118864315095808
aF0.03162277660168379
aF0.039810717055349734
aF0.05011872336272725
aF0.06309573444801933
aF0.07943282347242818
aF0.1
aF0.12589254117941676
aF0.15848931924611143
aF0.19952623149688808
aF0.25118864315095824
aF0.31622776601683794
aF0.3981071705534973
aF0.5011872336272725
aF0.6309573444801936
aF0.7943282347242822
aF1.0
aF1.2589254117941675
aF1.584893192461114
aF1.9952623149688808
aF2.5118864315095824
aF3.1622776601683795
aF3.981071705534973
aF5.011872336272725
aF6.309573444801936
aF7.943282347242821
aF10.0
a(lp115
F0.0
aF0.0
aF0.0
aF0.0
aF0.0
aF0.0
aF0.0
aF0.0
aF0.0
aF0.0
aF0.0
aF0.0
aF0.0
aF0.0
aF0.0
aF0.0
aF0.0
aF0.0
aF0.0
aF0.0
aF0.0
aF0.0
aF0.0
aF0.0
aF0.0
aF0.0
aF0.0
aF0.0
aF0.0
aF0.0
aF0.013574660633484163
aF0.011406844106463879
aF0.035483870967741936
aF0.051829268292682924
aF0.10139860139860139
aF0.23048327137546468
aF0.251063829787234
aF0.4393063583815029
aF0.5
aF0.6
aF0.7338129496402878
atp116
sS'pt_genEles_gsfTrks_etaall_Seed0p5'
p117
((lp118
F0.001
aF0.0012589254117941675
aF0.001584893192461114
aF0.001995262314968879
aF0.0025118864315095794
aF0.0031622776601683794
aF0.003981071705534973
aF0.005011872336272725
aF0.00630957344480193
aF0.007943282347242814
aF0.01
aF0.012589254117941675
aF0.01584893192461114
aF0.0199526231496888
aF0.025118864315095808
aF0.03162277660168379
aF0.039810717055349734
aF0.05011872336272725
aF0.06309573444801933
aF0.07943282347242818
aF0.1
aF0.12589254117941676
aF0.15848931924611143
aF0.19952623149688808
aF0.25118864315095824
aF0.31622776601683794
aF0.3981071705534973
aF0.5011872336272725
aF0.6309573444801936
aF0.7943282347242822
aF1.0
aF1.2589254117941675
aF1.584893192461114
aF1.9952623149688808
aF2.5118864315095824
aF3.1622776601683795
aF3.981071705534973
aF5.011872336272725
aF6.309573444801936
aF7.943282347242821
aF10.0
a(lp119
F0.0
aF0.0
aF0.0
aF0.0
aF0.0
aF0.0
aF0.0
aF0.0
aF0.0
aF0.0
aF0.0
aF0.0
aF0.0
aF0.0
aF0.0
aF0.0
aF0.0
aF0.0
aF0.0
aF0.0
aF0.0
aF0.0
aF0.014705882352941176
aF0.0
aF0.0
aF0.0
aF0.0
aF0.05870020964360587
aF0.1035548686244204
aF0.1735052754982415
aF0.19833948339483395
aF0.24509033778476041
aF0.3326345213137666
aF0.3893745796906523
aF0.4549237170596394
aF0.5287009063444109
aF0.5884509624197983
aF0.6879350348027842
aF0.804953560371517
aF0.832967032967033
aF0.8885496183206106
atp120
sS'pt_genEles_genTrks_eta0p8_Seed1p0'
p121
((lp122
F0.001
aF0.0012589254117941675
aF0.001584893192461114
aF0.001995262314968879
aF0.0025118864315095794
aF0.0031622776601683794
aF0.003981071705534973
aF0.005011872336272725
aF0.00630957344480193
aF0.007943282347242814
aF0.01
aF0.012589254117941675
aF0.01584893192461114
aF0.0199526231496888
aF0.025118864315095808
aF0.03162277660168379
aF0.039810717055349734
aF0.05011872336272725
aF0.06309573444801933
aF0.07943282347242818
aF0.1
aF0.12589254117941676
aF0.15848931924611143
aF0.19952623149688808
aF0.25118864315095824
aF0.31622776601683794
aF0.3981071705534973
aF0.5011872336272725
aF0.6309573444801936
aF0.7943282347242822
aF1.0
aF1.2589254117941675
aF1.584893192461114
aF1.9952623149688808
aF2.5118864315095824
aF3.1622776601683795
aF3.981071705534973
aF5.011872336272725
aF6.309573444801936
aF7.943282347242821
aF10.0
a(lp123
F0.0
aF0.0
aF0.0
aF0.0
aF0.0
aF0.0
aF0.0
aF0.0
aF0.0
aF0.0
aF0.0
aF0.0
aF0.0
aF0.0
aF0.0
aF0.0
aF0.0
aF0.0
aF0.0
aF0.0
aF0.0
aF0.0
aF0.14814814814814814
aF0.3333333333333333
aF0.4
aF0.3953488372093023
aF0.5057471264367817
aF0.6076923076923076
aF0.6737967914438503
aF0.71484375
aF0.7474402730375427
aF0.7244318181818182
aF0.7965686274509803
aF0.7545045045045045
aF0.8114558472553699
aF0.7969151670951157
aF0.802013422818792
aF0.8347826086956521
aF0.8306010928961749
aF0.7943262411347518
aF0.8888888888888888
atp124
sS'pt_genEles_gsfEles_eta2p0_Seed0p5'
p125
((lp126
F0.001
aF0.0012589254117941675
aF0.001584893192461114
aF0.001995262314968879
aF0.0025118864315095794
aF0.0031622776601683794
aF0.003981071705534973
aF0.005011872336272725
aF0.00630957344480193
aF0.007943282347242814
aF0.01
aF0.012589254117941675
aF0.01584893192461114
aF0.0199526231496888
aF0.025118864315095808
aF0.03162277660168379
aF0.039810717055349734
aF0.05011872336272725
aF0.06309573444801933
aF0.07943282347242818
aF0.1
aF0.12589254117941676
aF0.15848931924611143
aF0.19952623149688808
aF0.25118864315095824
aF0.31622776601683794
aF0.3981071705534973
aF0.5011872336272725
aF0.6309573444801936
aF0.7943282347242822
aF1.0
aF1.2589254117941675
aF1.584893192461114
aF1.9952623149688808
aF2.5118864315095824
aF3.1622776601683795
aF3.981071705534973
aF5.011872336272725
aF6.309573444801936
aF7.943282347242821
aF10.0
a(lp127
F0.0
aF0.0
aF0.0
aF0.0
aF0.0
aF0.0
aF0.0
aF0.0
aF0.0
aF0.0
aF0.0
aF0.0
aF0.0
aF0.0
aF0.0
aF0.0
aF0.0
aF0.0
aF0.0
aF0.0
aF0.0
aF0.0
aF0.0
aF0.0
aF0.0
aF0.0
aF0.0
aF0.0
aF0.0
aF0.0
aF0.0064516129032258064
aF0.022727272727272728
aF0.00510204081632653
aF0.07602339181286549
aF0.13089005235602094
aF0.18674698795180722
aF0.3445378151260504
aF0.5
aF0.8115942028985508
aF0.75
aF0.855072463768116
atp128
sS'pt_genEles_gsfEles_etaall_Seed0p5'
p129
((lp130
F0.001
aF0.0012589254117941675
aF0.001584893192461114
aF0.001995262314968879
aF0.0025118864315095794
aF0.0031622776601683794
aF0.003981071705534973
aF0.005011872336272725
aF0.00630957344480193
aF0.007943282347242814
aF0.01
aF0.012589254117941675
aF0.01584893192461114
aF0.0199526231496888
aF0.025118864315095808
aF0.03162277660168379
aF0.039810717055349734
aF0.05011872336272725
aF0.06309573444801933
aF0.07943282347242818
aF0.1
aF0.12589254117941676
aF0.15848931924611143
aF0.19952623149688808
aF0.25118864315095824
aF0.31622776601683794
aF0.3981071705534973
aF0.5011872336272725
aF0.6309573444801936
aF0.7943282347242822
aF1.0
aF1.2589254117941675
aF1.584893192461114
aF1.9952623149688808
aF2.5118864315095824
aF3.1622776601683795
aF3.981071705534973
aF5.011872336272725
aF6.309573444801936
aF7.943282347242821
aF10.0
a(lp131
F0.0
aF0.0
aF0.0
aF0.0
aF0.0
aF0.0
aF0.0
aF0.0
aF0.0
aF0.0
aF0.0
aF0.0
aF0.0
aF0.0
aF0.0
aF0.0
aF0.0
aF0.0
aF0.0
aF0.0
aF0.0
aF0.0
aF0.0
aF0.0
aF0.0
aF0.0
aF0.0
aF0.008385744234800839
aF0.010819165378670788
aF0.02579132473622509
aF0.0507380073800738
aF0.09897879025923016
aF0.1740041928721174
aF0.24680564895763282
aF0.3446601941747573
aF0.42673716012084595
aF0.5022914757103575
aF0.62877030162413
aF0.7260061919504643
aF0.7648351648351648
aF0.8122137404580153
atp132
sS'pt_genEles_gsfEles_eta1p4_Seed2p0'
p133
((lp134
F0.001
aF0.0012589254117941675
aF0.001584893192461114
aF0.001995262314968879
aF0.0025118864315095794
aF0.0031622776601683794
aF0.003981071705534973
aF0.005011872336272725
aF0.00630957344480193
aF0.007943282347242814
aF0.01
aF0.012589254117941675
aF0.01584893192461114
aF0.0199526231496888
aF0.025118864315095808
aF0.03162277660168379
aF0.039810717055349734
aF0.05011872336272725
aF0.06309573444801933
aF0.07943282347242818
aF0.1
aF0.12589254117941676
aF0.15848931924611143
aF0.19952623149688808
aF0.25118864315095824
aF0.31622776601683794
aF0.3981071705534973
aF0.5011872336272725
aF0.6309573444801936
aF0.7943282347242822
aF1.0
aF1.2589254117941675
aF1.584893192461114
aF1.9952623149688808
aF2.5118864315095824
aF3.1622776601683795
aF3.981071705534973
aF5.011872336272725
aF6.309573444801936
aF7.943282347242821
aF10.0
a(lp135
F0.0
aF0.0
aF0.0
aF0.0
aF0.0
aF0.0
aF0.0
aF0.0
aF0.0
aF0.0
aF0.0
aF0.0
aF0.0
aF0.0
aF0.0
aF0.0
aF0.0
aF0.0
aF0.0
aF0.0
aF0.0
aF0.0
aF0.0
aF0.0
aF0.0
aF0.0
aF0.0
aF0.0
aF0.0
aF0.0
aF0.0
aF0.0
aF0.0
aF0.024390243902439025
aF0.05063291139240506
aF0.2463768115942029
aF0.2868217054263566
aF0.41836734693877553
aF0.4939759036144578
aF0.5961538461538461
aF0.6956521739130435
atp136
sS'pt_genEles_genTrks_eta2p0_Gsf0p5'
p137
((lp138
F0.001
aF0.0012589254117941675
aF0.001584893192461114
aF0.001995262314968879
aF0.0025118864315095794
aF0.0031622776601683794
aF0.003981071705534973
aF0.005011872336272725
aF0.00630957344480193
aF0.007943282347242814
aF0.01
aF0.012589254117941675
aF0.01584893192461114
aF0.0199526231496888
aF0.025118864315095808
aF0.03162277660168379
aF0.039810717055349734
aF0.05011872336272725
aF0.06309573444801933
aF0.07943282347242818
aF0.1
aF0.12589254117941676
aF0.15848931924611143
aF0.19952623149688808
aF0.25118864315095824
aF0.31622776601683794
aF0.3981071705534973
aF0.5011872336272725
aF0.6309573444801936
aF0.7943282347242822
aF1.0
aF1.2589254117941675
aF1.584893192461114
aF1.9952623149688808
aF2.5118864315095824
aF3.1622776601683795
aF3.981071705534973
aF5.011872336272725
aF6.309573444801936
aF7.943282347242821
aF10.0
a(lp139
F0.0
aF0.0
aF0.0
aF0.0
aF0.0
aF0.0
aF0.0
aF0.0
aF0.0
aF0.0
aF0.0
aF0.0
aF0.0
aF0.0
aF0.0
aF0.0
aF0.0
aF0.0
aF0.0
aF0.0
aF0.0
aF0.0
aF0.0
aF0.0
aF0.2631578947368421
aF0.36666666666666664
aF0.3953488372093023
aF0.4084507042253521
aF0.5517241379310345
aF0.5423728813559322
aF0.5870967741935483
aF0.5847953216374269
aF0.6994818652849741
aF0.6744186046511628
aF0.6632653061224489
aF0.7696969696969697
aF0.811965811965812
aF0.7448979591836735
aF0.8805970149253731
aF0.8727272727272727
aF0.8985507246376812
atp140
sS'pt_genEles_genTrks_etaall_Seed1p0'
p141
((lp142
F0.001
aF0.0012589254117941675
aF0.001584893192461114
aF0.001995262314968879
aF0.0025118864315095794
aF0.0031622776601683794
aF0.003981071705534973
aF0.005011872336272725
aF0.00630957344480193
aF0.007943282347242814
aF0.01
aF0.012589254117941675
aF0.01584893192461114
aF0.0199526231496888
aF0.025118864315095808
aF0.03162277660168379
aF0.039810717055349734
aF0.05011872336272725
aF0.06309573444801933
aF0.07943282347242818
aF0.1
aF0.12589254117941676
aF0.15848931924611143
aF0.19952623149688808
aF0.25118864315095824
aF0.31622776601683794
aF0.3981071705534973
aF0.5011872336272725
aF0.6309573444801936
aF0.7943282347242822
aF1.0
aF1.2589254117941675
aF1.584893192461114
aF1.9952623149688808
aF2.5118864315095824
aF3.1622776601683795
aF3.981071705534973
aF5.011872336272725
aF6.309573444801936
aF7.943282347242821
aF10.0
a(lp143
F0.0
aF0.0
aF0.0
aF0.0
aF0.0
aF0.0
aF0.0
aF0.0
aF0.0
aF0.0
aF0.0
aF0.0
aF0.0
aF0.0
aF0.0
aF0.0
aF0.0
aF0.0
aF0.0
aF0.0
aF0.0
aF0.11538461538461539
aF0.13043478260869565
aF0.3894736842105263
aF0.36666666666666664
aF0.4644808743169399
aF0.5679012345679012
aF0.64
aF0.6976744186046512
aF0.7169590643274854
aF0.7569316081330869
aF0.7474429583005507
aF0.7935393258426966
aF0.7943737441393168
aF0.8107923497267759
aF0.8275340393343419
aF0.8341056533827618
aF0.8477508650519031
aF0.8535825545171339
aF0.8612334801762115
aF0.9010654490106544
atp144
sS'pt_genEles_gsfEles_eta1p4_Gsf0p5'
p145
((lp146
F0.001
aF0.0012589254117941675
aF0.001584893192461114
aF0.001995262314968879
aF0.0025118864315095794
aF0.0031622776601683794
aF0.003981071705534973
aF0.005011872336272725
aF0.00630957344480193
aF0.007943282347242814
aF0.01
aF0.012589254117941675
aF0.01584893192461114
aF0.0199526231496888
aF0.025118864315095808
aF0.03162277660168379
aF0.039810717055349734
aF0.05011872336272725
aF0.06309573444801933
aF0.07943282347242818
aF0.1
aF0.12589254117941676
aF0.15848931924611143
aF0.19952623149688808
aF0.25118864315095824
aF0.31622776601683794
aF0.3981071705534973
aF0.5011872336272725
aF0.6309573444801936
aF0.7943282347242822
aF1.0
aF1.2589254117941675
aF1.584893192461114
aF1.9952623149688808
aF2.5118864315095824
aF3.1622776601683795
aF3.981071705534973
aF5.011872336272725
aF6.309573444801936
aF7.943282347242821
aF10.0
a(lp147
F0.0
aF0.0
aF0.0
aF0.0
aF0.0
aF0.0
aF0.0
aF0.0
aF0.0
aF0.0
aF0.0
aF0.0
aF0.0
aF0.0
aF0.0
aF0.0
aF0.0
aF0.0
aF0.0
aF0.0
aF0.0
aF0.0
aF0.0
aF0.0
aF0.0
aF0.0
aF0.0
aF0.010638297872340425
aF0.0
aF0.015789473684210527
aF0.00904977375565611
aF0.019011406844106463
aF0.041935483870967745
aF0.051829268292682924
aF0.10839160839160839
aF0.22676579925650558
aF0.2680851063829787
aF0.42196531791907516
aF0.48507462686567165
aF0.6222222222222222
aF0.7338129496402878
atp148
sS'pt_genEles_genTrks_eta0p0_Seed2p0'
p149
((lp150
F0.001
aF0.0012589254117941675
aF0.001584893192461114
aF0.001995262314968879
aF0.0025118864315095794
aF0.0031622776601683794
aF0.003981071705534973
aF0.005011872336272725
aF0.00630957344480193
aF0.007943282347242814
aF0.01
aF0.012589254117941675
aF0.01584893192461114
aF0.0199526231496888
aF0.025118864315095808
aF0.03162277660168379
aF0.039810717055349734
aF0.05011872336272725
aF0.06309573444801933
aF0.07943282347242818
aF0.1
aF0.12589254117941676
aF0.15848931924611143
aF0.19952623149688808
aF0.25118864315095824
aF0.31622776601683794
aF0.3981071705534973
aF0.5011872336272725
aF0.6309573444801936
aF0.7943282347242822
aF1.0
aF1.2589254117941675
aF1.584893192461114
aF1.9952623149688808
aF2.5118864315095824
aF3.1622776601683795
aF3.981071705534973
aF5.011872336272725
aF6.309573444801936
aF7.943282347242821
aF10.0
a(lp151
F0.0
aF0.0
aF0.0
aF0.0
aF0.0
aF0.0
aF0.0
aF0.0
aF0.0
aF0.0
aF0.0
aF0.0
aF0.0
aF0.0
aF0.0
aF0.0
aF0.0
aF0.0
aF0.0
aF0.0
aF0.0
aF0.2222222222222222
aF0.18181818181818182
aF0.5428571428571428
aF0.4423076923076923
aF0.6176470588235294
aF0.6923076923076923
aF0.8111111111111111
aF0.8530612244897959
aF0.8865979381443299
aF0.8837772397094431
aF0.8948453608247423
aF0.8732943469785575
aF0.9216757741347905
aF0.8934280639431617
aF0.9178356713426854
aF0.9254079254079254
aF0.9398907103825137
aF0.937984496124031
aF0.9404761904761905
aF0.9568345323741008
atp152
sS'pt_genEles_gsfEles_etaall_Gsf0p5'
p153
((lp154
F0.001
aF0.0012589254117941675
aF0.001584893192461114
aF0.001995262314968879
aF0.0025118864315095794
aF0.0031622776601683794
aF0.003981071705534973
aF0.005011872336272725
aF0.00630957344480193
aF0.007943282347242814
aF0.01
aF0.012589254117941675
aF0.01584893192461114
aF0.0199526231496888
aF0.025118864315095808
aF0.03162277660168379
aF0.039810717055349734
aF0.05011872336272725
aF0.06309573444801933
aF0.07943282347242818
aF0.1
aF0.12589254117941676
aF0.15848931924611143
aF0.19952623149688808
aF0.25118864315095824
aF0.31622776601683794
aF0.3981071705534973
aF0.5011872336272725
aF0.6309573444801936
aF0.7943282347242822
aF1.0
aF1.2589254117941675
aF1.584893192461114
aF1.9952623149688808
aF2.5118864315095824
aF3.1622776601683795
aF3.981071705534973
aF5.011872336272725
aF6.309573444801936
aF7.943282347242821
aF10.0
a(lp155
F0.0
aF0.0
aF0.0
aF0.0
aF0.0
aF0.0
aF0.0
aF0.0
aF0.0
aF0.0
aF0.0
aF0.0
aF0.0
aF0.0
aF0.0
aF0.0
aF0.0
aF0.0
aF0.0
aF0.0
aF0.0
aF0.0
aF0.0
aF0.0
aF0.0
aF0.0
aF0.0
aF0.010526315789473684
aF0.015503875968992248
aF0.03742690058479532
aF0.051756007393715345
aF0.12273800157356413
aF0.18609550561797752
aF0.2672471533824514
aF0.3510928961748634
aF0.43116490166414523
aF0.5143651529193698
aF0.6274509803921569
aF0.721183800623053
aF0.7599118942731278
aF0.806697108066971
atp156
sS'pt_genEles_gsfTrks_eta1p4_Gsf0p5'
p157
((lp158
F0.001
aF0.0012589254117941675
aF0.001584893192461114
aF0.001995262314968879
aF0.0025118864315095794
aF0.0031622776601683794
aF0.003981071705534973
aF0.005011872336272725
aF0.00630957344480193
aF0.007943282347242814
aF0.01
aF0.012589254117941675
aF0.01584893192461114
aF0.0199526231496888
aF0.025118864315095808
aF0.03162277660168379
aF0.039810717055349734
aF0.05011872336272725
aF0.06309573444801933
aF0.07943282347242818
aF0.1
aF0.12589254117941676
aF0.15848931924611143
aF0.19952623149688808
aF0.25118864315095824
aF0.31622776601683794
aF0.3981071705534973
aF0.5011872336272725
aF0.6309573444801936
aF0.7943282347242822
aF1.0
aF1.2589254117941675
aF1.584893192461114
aF1.9952623149688808
aF2.5118864315095824
aF3.1622776601683795
aF3.981071705534973
aF5.011872336272725
aF6.309573444801936
aF7.943282347242821
aF10.0
a(lp159
F0.0
aF0.0
aF0.0
aF0.0
aF0.0
aF0.0
aF0.0
aF0.0
aF0.0
aF0.0
aF0.0
aF0.0
aF0.0
aF0.0
aF0.0
aF0.0
aF0.0
aF0.0
aF0.0
aF0.0
aF0.0
aF0.0
aF0.07692307692307693
aF0.0
aF0.0
aF0.0
aF0.012987012987012988
aF0.07446808510638298
aF0.1111111111111111
aF0.10526315789473684
aF0.14027149321266968
aF0.12167300380228137
aF0.1774193548387097
aF0.1951219512195122
aF0.2202797202797203
aF0.3382899628252788
aF0.3446808510638298
aF0.5317919075144508
aF0.6194029850746269
aF0.7333333333333333
aF0.8273381294964028
atp160
sS'pt_genEles_gsfTrks_etaall_Seed1p0'
p161
((lp162
F0.001
aF0.0012589254117941675
aF0.001584893192461114
aF0.001995262314968879
aF0.0025118864315095794
aF0.0031622776601683794
aF0.003981071705534973
aF0.005011872336272725
aF0.00630957344480193
aF0.007943282347242814
aF0.01
aF0.012589254117941675
aF0.01584893192461114
aF0.0199526231496888
aF0.025118864315095808
aF0.03162277660168379
aF0.039810717055349734
aF0.05011872336272725
aF0.06309573444801933
aF0.07943282347242818
aF0.1
aF0.12589254117941676
aF0.15848931924611143
aF0.19952623149688808
aF0.25118864315095824
aF0.31622776601683794
aF0.3981071705534973
aF0.5011872336272725
aF0.6309573444801936
aF0.7943282347242822
aF1.0
aF1.2589254117941675
aF1.584893192461114
aF1.9952623149688808
aF2.5118864315095824
aF3.1622776601683795
aF3.981071705534973
aF5.011872336272725
aF6.309573444801936
aF7.943282347242821
aF10.0
a(lp163
F0.0
aF0.0
aF0.0
aF0.0
aF0.0
aF0.0
aF0.0
aF0.0
aF0.0
aF0.0
aF0.0
aF0.0
aF0.0
aF0.0
aF0.0
aF0.0
aF0.0
aF0.0
aF0.0
aF0.0
aF0.0
aF0.0
aF0.0
aF0.0
aF0.0
aF0.0
aF0.0
aF0.002105263157894737
aF0.0
aF0.008187134502923977
aF0.13955637707948243
aF0.23288749016522423
aF0.3188202247191011
aF0.3784326858673811
aF0.43989071038251365
aF0.5257186081694403
aF0.5857275254865616
aF0.6816608996539792
aF0.8037383177570093
aF0.8281938325991189
aF0.8843226788432268
atp164
sS'pt_genEles_genTrks_eta0p8_Seed0p5'
p165
((lp166
F0.001
aF0.0012589254117941675
aF0.001584893192461114
aF0.001995262314968879
aF0.0025118864315095794
aF0.0031622776601683794
aF0.003981071705534973
aF0.005011872336272725
aF0.00630957344480193
aF0.007943282347242814
aF0.01
aF0.012589254117941675
aF0.01584893192461114
aF0.0199526231496888
aF0.025118864315095808
aF0.03162277660168379
aF0.039810717055349734
aF0.05011872336272725
aF0.06309573444801933
aF0.07943282347242818
aF0.1
aF0.12589254117941676
aF0.15848931924611143
aF0.19952623149688808
aF0.25118864315095824
aF0.31622776601683794
aF0.3981071705534973
aF0.5011872336272725
aF0.6309573444801936
aF0.7943282347242822
aF1.0
aF1.2589254117941675
aF1.584893192461114
aF1.9952623149688808
aF2.5118864315095824
aF3.1622776601683795
aF3.981071705534973
aF5.011872336272725
aF6.309573444801936
aF7.943282347242821
aF10.0
a(lp167
F0.0
aF0.0
aF0.0
aF0.0
aF0.0
aF0.0
aF0.0
aF0.0
aF0.0
aF0.0
aF0.0
aF0.0
aF0.0
aF0.0
aF0.0
aF0.0
aF0.0
aF0.0
aF0.0
aF0.0
aF0.0
aF0.0
aF0.14814814814814814
aF0.3333333333333333
aF0.3793103448275862
aF0.38636363636363635
aF0.5057471264367817
aF0.6183206106870229
aF0.671957671957672
aF0.7007874015748031
aF0.7407407407407407
aF0.7228571428571429
aF0.7975609756097561
aF0.7551020408163265
aF0.8106796116504854
aF0.7922077922077922
aF0.802013422818792
aF0.8296943231441049
aF0.8333333333333334
aF0.7928571428571428
aF0.8895348837209303
atp168
sS'pt_genEles_gsfTrks_eta2p0_Seed0p5'
p169
((lp170
F0.001
aF0.0012589254117941675
aF0.001584893192461114
aF0.001995262314968879
aF0.0025118864315095794
aF0.0031622776601683794
aF0.003981071705534973
aF0.005011872336272725
aF0.00630957344480193
aF0.007943282347242814
aF0.01
aF0.012589254117941675
aF0.01584893192461114
aF0.0199526231496888
aF0.025118864315095808
aF0.03162277660168379
aF0.039810717055349734
aF0.05011872336272725
aF0.06309573444801933
aF0.07943282347242818
aF0.1
aF0.12589254117941676
aF0.15848931924611143
aF0.19952623149688808
aF0.25118864315095824
aF0.31622776601683794
aF0.3981071705534973
aF0.5011872336272725
aF0.6309573444801936
aF0.7943282347242822
aF1.0
aF1.2589254117941675
aF1.584893192461114
aF1.9952623149688808
aF2.5118864315095824
aF3.1622776601683795
aF3.981071705534973
aF5.011872336272725
aF6.309573444801936
aF7.943282347242821
aF10.0
a(lp171
F0.0
aF0.0
aF0.0
aF0.0
aF0.0
aF0.0
aF0.0
aF0.0
aF0.0
aF0.0
aF0.0
aF0.0
aF0.0
aF0.0
aF0.0
aF0.0
aF0.0
aF0.0
aF0.0
aF0.0
aF0.0
aF0.0
aF0.0
aF0.0
aF0.0
aF0.0
aF0.0
aF0.041666666666666664
aF0.05747126436781609
aF0.05785123966942149
aF0.08387096774193549
aF0.07954545454545454
aF0.09693877551020408
aF0.16374269005847952
aF0.225130890052356
aF0.3373493975903614
aF0.47058823529411764
aF0.5816326530612245
aF0.8985507246376812
aF0.8571428571428571
aF0.927536231884058
atp172
sS'pt_genEles_gsfEles_eta1p4_Seed0p5'
p173
((lp174
F0.001
aF0.0012589254117941675
aF0.001584893192461114
aF0.001995262314968879
aF0.0025118864315095794
aF0.0031622776601683794
aF0.003981071705534973
aF0.005011872336272725
aF0.00630957344480193
aF0.007943282347242814
aF0.01
aF0.012589254117941675
aF0.01584893192461114
aF0.0199526231496888
aF0.025118864315095808
aF0.03162277660168379
aF0.039810717055349734
aF0.05011872336272725
aF0.06309573444801933
aF0.07943282347242818
aF0.1
aF0.12589254117941676
aF0.15848931924611143
aF0.19952623149688808
aF0.25118864315095824
aF0.31622776601683794
aF0.3981071705534973
aF0.5011872336272725
aF0.6309573444801936
aF0.7943282347242822
aF1.0
aF1.2589254117941675
aF1.584893192461114
aF1.9952623149688808
aF2.5118864315095824
aF3.1622776601683795
aF3.981071705534973
aF5.011872336272725
aF6.309573444801936
aF7.943282347242821
aF10.0
a(lp175
F0.0
aF0.0
aF0.0
aF0.0
aF0.0
aF0.0
aF0.0
aF0.0
aF0.0
aF0.0
aF0.0
aF0.0
aF0.0
aF0.0
aF0.0
aF0.0
aF0.0
aF0.0
aF0.0
aF0.0
aF0.0
aF0.0
aF0.0
aF0.0
aF0.0
aF0.0
aF0.0
aF0.010638297872340425
aF0.0
aF0.015789473684210527
aF0.01818181818181818
aF0.011363636363636364
aF0.03618421052631579
aF0.04878048780487805
aF0.0967741935483871
aF0.23134328358208955
aF0.2510460251046025
aF0.4294117647058823
aF0.5073529411764706
aF0.5977011494252874
aF0.7285714285714285
atp176
sS'pt_genEles_gsfEles_eta0p8_Gsf0p5'
p177
((lp178
F0.001
aF0.0012589254117941675
aF0.001584893192461114
aF0.001995262314968879
aF0.0025118864315095794
aF0.0031622776601683794
aF0.003981071705534973
aF0.005011872336272725
aF0.00630957344480193
aF0.007943282347242814
aF0.01
aF0.012589254117941675
aF0.01584893192461114
aF0.0199526231496888
aF0.025118864315095808
aF0.03162277660168379
aF0.039810717055349734
aF0.05011872336272725
aF0.06309573444801933
aF0.07943282347242818
aF0.1
aF0.12589254117941676
aF0.15848931924611143
aF0.19952623149688808
aF0.25118864315095824
aF0.31622776601683794
aF0.3981071705534973
aF0.5011872336272725
aF0.6309573444801936
aF0.7943282347242822
aF1.0
aF1.2589254117941675
aF1.584893192461114
aF1.9952623149688808
aF2.5118864315095824
aF3.1622776601683795
aF3.981071705534973
aF5.011872336272725
aF6.309573444801936
aF7.943282347242821
aF10.0
a(lp179
F0.0
aF0.0
aF0.0
aF0.0
aF0.0
aF0.0
aF0.0
aF0.0
aF0.0
aF0.0
aF0.0
aF0.0
aF0.0
aF0.0
aF0.0
aF0.0
aF0.0
aF0.0
aF0.0
aF0.0
aF0.0
aF0.0
aF0.0
aF0.0
aF0.0
aF0.0
aF0.0
aF0.007692307692307693
aF0.0213903743315508
aF0.05859375
aF0.04778156996587031
aF0.11647727272727272
aF0.19607843137254902
aF0.268018018018018
aF0.37708830548926014
aF0.4267352185089974
aF0.5067114093959731
aF0.5869565217391305
aF0.6939890710382514
aF0.7446808510638298
aF0.8011695906432749
atp180
sS'pt_genEles_genTrks_etaall_Seed0p5'
p181
((lp182
F0.001
aF0.0012589254117941675
aF0.001584893192461114
aF0.001995262314968879
aF0.0025118864315095794
aF0.0031622776601683794
aF0.003981071705534973
aF0.005011872336272725
aF0.00630957344480193
aF0.007943282347242814
aF0.01
aF0.012589254117941675
aF0.01584893192461114
aF0.0199526231496888
aF0.025118864315095808
aF0.03162277660168379
aF0.039810717055349734
aF0.05011872336272725
aF0.06309573444801933
aF0.07943282347242818
aF0.1
aF0.12589254117941676
aF0.15848931924611143
aF0.19952623149688808
aF0.25118864315095824
aF0.31622776601683794
aF0.3981071705534973
aF0.5011872336272725
aF0.6309573444801936
aF0.7943282347242822
aF1.0
aF1.2589254117941675
aF1.584893192461114
aF1.9952623149688808
aF2.5118864315095824
aF3.1622776601683795
aF3.981071705534973
aF5.011872336272725
aF6.309573444801936
aF7.943282347242821
aF10.0
a(lp183
F0.0
aF0.0
aF0.0
aF0.0
aF0.0
aF0.0
aF0.0
aF0.0
aF0.0
aF0.0
aF0.0
aF0.0
aF0.0
aF0.0
aF0.0
aF0.0
aF0.0
aF0.0
aF0.0
aF0.0
aF0.0
aF0.1111111111111111
aF0.1323529411764706
aF0.3723404255319149
aF0.3813559322033898
aF0.45454545454545453
aF0.5757575757575758
aF0.6415094339622641
aF0.6955177743431221
aF0.712778429073857
aF0.757380073800738
aF0.7431264728986646
aF0.7917540181691125
aF0.7955615332885003
aF0.811373092926491
aF0.8270392749244713
aF0.8331805682859762
aF0.8468677494199536
aF0.8544891640866873
aF0.8615384615384616
aF0.9007633587786259
atp184
sS'pt_genEles_gsfTrks_eta0p8_Seed0p5'
p185
((lp186
F0.001
aF0.0012589254117941675
aF0.001584893192461114
aF0.001995262314968879
aF0.0025118864315095794
aF0.0031622776601683794
aF0.003981071705534973
aF0.005011872336272725
aF0.00630957344480193
aF0.007943282347242814
aF0.01
aF0.012589254117941675
aF0.01584893192461114
aF0.0199526231496888
aF0.025118864315095808
aF0.03162277660168379
aF0.039810717055349734
aF0.05011872336272725
aF0.06309573444801933
aF0.07943282347242818
aF0.1
aF0.12589254117941676
aF0.15848931924611143
aF0.19952623149688808
aF0.25118864315095824
aF0.31622776601683794
aF0.3981071705534973
aF0.5011872336272725
aF0.6309573444801936
aF0.7943282347242822
aF1.0
aF1.2589254117941675
aF1.584893192461114
aF1.9952623149688808
aF2.5118864315095824
aF3.1622776601683795
aF3.981071705534973
aF5.011872336272725
aF6.309573444801936
aF7.943282347242821
aF10.0
a(lp187
F0.0
aF0.0
aF0.0
aF0.0
aF0.0
aF0.0
aF0.0
aF0.0
aF0.0
aF0.0
aF0.0
aF0.0
aF0.0
aF0.0
aF0.0
aF0.0
aF0.0
aF0.0
aF0.0
aF0.0
aF0.0
aF0.0
aF0.0
aF0.0
aF0.0
aF0.0
aF0.0
aF0.07633587786259542
aF0.09523809523809523
aF0.2283464566929134
aF0.22895622895622897
aF0.2571428571428571
aF0.3975609756097561
aF0.3877551020408163
aF0.49029126213592233
aF0.4961038961038961
aF0.5771812080536913
aF0.6331877729257642
aF0.7419354838709677
aF0.7857142857142857
aF0.877906976744186
atp188
sS'pt_genEles_genTrks_eta0p0_Seed0p5'
p189
((lp190
F0.001
aF0.0012589254117941675
aF0.001584893192461114
aF0.001995262314968879
aF0.0025118864315095794
aF0.0031622776601683794
aF0.003981071705534973
aF0.005011872336272725
aF0.00630957344480193
aF0.007943282347242814
aF0.01
aF0.012589254117941675
aF0.01584893192461114
aF0.0199526231496888
aF0.025118864315095808
aF0.03162277660168379
aF0.039810717055349734
aF0.05011872336272725
aF0.06309573444801933
aF0.07943282347242818
aF0.1
aF0.12589254117941676
aF0.15848931924611143
aF0.19952623149688808
aF0.25118864315095824
aF0.31622776601683794
aF0.3981071705534973
aF0.5011872336272725
aF0.6309573444801936
aF0.7943282347242822
aF1.0
aF1.2589254117941675
aF1.584893192461114
aF1.9952623149688808
aF2.5118864315095824
aF3.1622776601683795
aF3.981071705534973
aF5.011872336272725
aF6.309573444801936
aF7.943282347242821
aF10.0
a(lp191
F0.0
aF0.0
aF0.0
aF0.0
aF0.0
aF0.0
aF0.0
aF0.0
aF0.0
aF0.0
aF0.0
aF0.0
aF0.0
aF0.0
aF0.0
aF0.0
aF0.0
aF0.0
aF0.0
aF0.0
aF0.0
aF0.2
aF0.19047619047619047
aF0.5
aF0.4716981132075472
aF0.6142857142857143
aF0.7107438016528925
aF0.8111111111111111
aF0.8530612244897959
aF0.8854166666666666
aF0.8883495145631068
aF0.8944099378881988
aF0.8714011516314779
aF0.923217550274223
aF0.8964285714285715
aF0.9168316831683169
aF0.9195402298850575
aF0.9424657534246575
aF0.9333333333333333
aF0.9418604651162791
aF0.9598540145985401
atp192
sS'pt_genEles_gsfEles_eta0p0_Seed0p5'
p193
((lp194
F0.001
aF0.0012589254117941675
aF0.001584893192461114
aF0.001995262314968879
aF0.0025118864315095794
aF0.0031622776601683794
aF0.003981071705534973
aF0.005011872336272725
aF0.00630957344480193
aF0.007943282347242814
aF0.01
aF0.012589254117941675
aF0.01584893192461114
aF0.0199526231496888
aF0.025118864315095808
aF0.03162277660168379
aF0.039810717055349734
aF0.05011872336272725
aF0.06309573444801933
aF0.07943282347242818
aF0.1
aF0.12589254117941676
aF0.15848931924611143
aF0.19952623149688808
aF0.25118864315095824
aF0.31622776601683794
aF0.3981071705534973
aF0.5011872336272725
aF0.6309573444801936
aF0.7943282347242822
aF1.0
aF1.2589254117941675
aF1.584893192461114
aF1.9952623149688808
aF2.5118864315095824
aF3.1622776601683795
aF3.981071705534973
aF5.011872336272725
aF6.309573444801936
aF7.943282347242821
aF10.0
a(lp195
F0.0
aF0.0
aF0.0
aF0.0
aF0.0
aF0.0
aF0.0
aF0.0
aF0.0
aF0.0
aF0.0
aF0.0
aF0.0
aF0.0
aF0.0
aF0.0
aF0.0
aF0.0
aF0.0
aF0.0
aF0.0
aF0.0
aF0.0
aF0.0
aF0.0
aF0.0
aF0.0
aF0.005555555555555556
aF0.012244897959183673
aF0.034722222222222224
aF0.09223300970873786
aF0.18426501035196688
aF0.30902111324376197
aF0.4351005484460695
aF0.525
aF0.6217821782178218
aF0.6850574712643678
aF0.7863013698630137
aF0.8470588235294118
aF0.872093023255814
aF0.8467153284671532
atp196
sS'pt_genEles_gsfTrks_eta0p8_Seed2p0'
p197
((lp198
F0.001
aF0.0012589254117941675
aF0.001584893192461114
aF0.001995262314968879
aF0.0025118864315095794
aF0.0031622776601683794
aF0.003981071705534973
aF0.005011872336272725
aF0.00630957344480193
aF0.007943282347242814
aF0.01
aF0.012589254117941675
aF0.01584893192461114
aF0.0199526231496888
aF0.025118864315095808
aF0.03162277660168379
aF0.039810717055349734
aF0.05011872336272725
aF0.06309573444801933
aF0.07943282347242818
aF0.1
aF0.12589254117941676
aF0.15848931924611143
aF0.19952623149688808
aF0.25118864315095824
aF0.31622776601683794
aF0.3981071705534973
aF0.5011872336272725
aF0.6309573444801936
aF0.7943282347242822
aF1.0
aF1.2589254117941675
aF1.584893192461114
aF1.9952623149688808
aF2.5118864315095824
aF3.1622776601683795
aF3.981071705534973
aF5.011872336272725
aF6.309573444801936
aF7.943282347242821
aF10.0
a(lp199
F0.0
aF0.0
aF0.0
aF0.0
aF0.0
aF0.0
aF0.0
aF0.0
aF0.0
aF0.0
aF0.0
aF0.0
aF0.0
aF0.0
aF0.0
aF0.0
aF0.0
aF0.0
aF0.0
aF0.0
aF0.0
aF0.0
aF0.0
aF0.0
aF0.0
aF0.0
aF0.0
aF0.0
aF0.0
aF0.0
aF0.0
aF0.0
aF0.004901960784313725
aF0.27702702702702703
aF0.4343675417661098
aF0.4832904884318766
aF0.5637583892617449
aF0.6173913043478261
aF0.73224043715847
aF0.7872340425531915
aF0.8771929824561403
atp200
sS'pt_genEles_genTrks_eta0p0_Seed1p0'
p201
((lp202
F0.001
aF0.0012589254117941675
aF0.001584893192461114
aF0.001995262314968879
aF0.0025118864315095794
aF0.0031622776601683794
aF0.003981071705534973
aF0.005011872336272725
aF0.00630957344480193
aF0.007943282347242814
aF0.01
aF0.012589254117941675
aF0.01584893192461114
aF0.0199526231496888
aF0.025118864315095808
aF0.03162277660168379
aF0.039810717055349734
aF0.05011872336272725
aF0.06309573444801933
aF0.07943282347242818
aF0.1
aF0.12589254117941676
aF0.15848931924611143
aF0.19952623149688808
aF0.25118864315095824
aF0.31622776601683794
aF0.3981071705534973
aF0.5011872336272725
aF0.6309573444801936
aF0.7943282347242822
aF1.0
aF1.2589254117941675
aF1.584893192461114
aF1.9952623149688808
aF2.5118864315095824
aF3.1622776601683795
aF3.981071705534973
aF5.011872336272725
aF6.309573444801936
aF7.943282347242821
aF10.0
a(lp203
F0.0
aF0.0
aF0.0
aF0.0
aF0.0
aF0.0
aF0.0
aF0.0
aF0.0
aF0.0
aF0.0
aF0.0
aF0.0
aF0.0
aF0.0
aF0.0
aF0.0
aF0.0
aF0.0
aF0.0
aF0.0
aF0.2222222222222222
aF0.18181818181818182
aF0.5428571428571428
aF0.4423076923076923
aF0.6176470588235294
aF0.6923076923076923
aF0.8111111111111111
aF0.8530612244897959
aF0.8865979381443299
aF0.8837772397094431
aF0.8948453608247423
aF0.8732943469785575
aF0.9216757741347905
aF0.8934280639431617
aF0.9178356713426854
aF0.9254079254079254
aF0.9398907103825137
aF0.937984496124031
aF0.9404761904761905
aF0.9568345323741008
atp204
sS'pt_genEles_gsfTrks_eta0p0_Seed0p5'
p205
((lp206
F0.001
aF0.0012589254117941675
aF0.001584893192461114
aF0.001995262314968879
aF0.0025118864315095794
aF0.0031622776601683794
aF0.003981071705534973
aF0.005011872336272725
aF0.00630957344480193
aF0.007943282347242814
aF0.01
aF0.012589254117941675
aF0.01584893192461114
aF0.0199526231496888
aF0.025118864315095808
aF0.03162277660168379
aF0.039810717055349734
aF0.05011872336272725
aF0.06309573444801933
aF0.07943282347242818
aF0.1
aF0.12589254117941676
aF0.15848931924611143
aF0.19952623149688808
aF0.25118864315095824
aF0.31622776601683794
aF0.3981071705534973
aF0.5011872336272725
aF0.6309573444801936
aF0.7943282347242822
aF1.0
aF1.2589254117941675
aF1.584893192461114
aF1.9952623149688808
aF2.5118864315095824
aF3.1622776601683795
aF3.981071705534973
aF5.011872336272725
aF6.309573444801936
aF7.943282347242821
aF10.0
a(lp207
F0.0
aF0.0
aF0.0
aF0.0
aF0.0
aF0.0
aF0.0
aF0.0
aF0.0
aF0.0
aF0.0
aF0.0
aF0.0
aF0.0
aF0.0
aF0.0
aF0.0
aF0.0
aF0.0
aF0.0
aF0.0
aF0.0
aF0.0
aF0.0
aF0.0
aF0.0
aF0.0
aF0.05
aF0.11020408163265306
aF0.21180555555555555
aF0.24271844660194175
aF0.36853002070393376
aF0.45873320537428025
aF0.5813528336380256
aF0.6196428571428572
aF0.7188118811881188
aF0.7609195402298851
aF0.8273972602739726
aF0.9176470588235294
aF0.9069767441860465
aF0.916058394160584
atp208
sS'pt_genEles_genTrks_etaall_Gsf0p5'
p209
((lp210
F0.001
aF0.0012589254117941675
aF0.001584893192461114
aF0.001995262314968879
aF0.0025118864315095794
aF0.0031622776601683794
aF0.003981071705534973
aF0.005011872336272725
aF0.00630957344480193
aF0.007943282347242814
aF0.01
aF0.012589254117941675
aF0.01584893192461114
aF0.0199526231496888
aF0.025118864315095808
aF0.03162277660168379
aF0.039810717055349734
aF0.05011872336272725
aF0.06309573444801933
aF0.07943282347242818
aF0.1
aF0.12589254117941676
aF0.15848931924611143
aF0.19952623149688808
aF0.25118864315095824
aF0.31622776601683794
aF0.3981071705534973
aF0.5011872336272725
aF0.6309573444801936
aF0.7943282347242822
aF1.0
aF1.2589254117941675
aF1.584893192461114
aF1.9952623149688808
aF2.5118864315095824
aF3.1622776601683795
aF3.981071705534973
aF5.011872336272725
aF6.309573444801936
aF7.943282347242821
aF10.0
a(lp211
F0.0
aF0.0
aF0.0
aF0.0
aF0.0
aF0.0
aF0.0
aF0.0
aF0.0
aF0.0
aF0.0
aF0.0
aF0.0
aF0.0
aF0.0
aF0.0
aF0.0
aF0.0
aF0.0
aF0.0
aF0.0
aF0.11538461538461539
aF0.13043478260869565
aF0.3894736842105263
aF0.36666666666666664
aF0.4644808743169399
aF0.5679012345679012
aF0.64
aF0.6976744186046512
aF0.7169590643274854
aF0.7569316081330869
aF0.7474429583005507
aF0.7935393258426966
aF0.7943737441393168
aF0.8107923497267759
aF0.8275340393343419
aF0.8341056533827618
aF0.8477508650519031
aF0.8535825545171339
aF0.8612334801762115
aF0.9010654490106544
atp212
sS'pt_genEles_gsfEles_etaall_Seed1p0'
p213
((lp214
F0.001
aF0.0012589254117941675
aF0.001584893192461114
aF0.001995262314968879
aF0.0025118864315095794
aF0.0031622776601683794
aF0.003981071705534973
aF0.005011872336272725
aF0.00630957344480193
aF0.007943282347242814
aF0.01
aF0.012589254117941675
aF0.01584893192461114
aF0.0199526231496888
aF0.025118864315095808
aF0.03162277660168379
aF0.039810717055349734
aF0.05011872336272725
aF0.06309573444801933
aF0.07943282347242818
aF0.1
aF0.12589254117941676
aF0.15848931924611143
aF0.19952623149688808
aF0.25118864315095824
aF0.31622776601683794
aF0.3981071705534973
aF0.5011872336272725
aF0.6309573444801936
aF0.7943282347242822
aF1.0
aF1.2589254117941675
aF1.584893192461114
aF1.9952623149688808
aF2.5118864315095824
aF3.1622776601683795
aF3.981071705534973
aF5.011872336272725
aF6.309573444801936
aF7.943282347242821
aF10.0
a(lp215
F0.0
aF0.0
aF0.0
aF0.0
aF0.0
aF0.0
aF0.0
aF0.0
aF0.0
aF0.0
aF0.0
aF0.0
aF0.0
aF0.0
aF0.0
aF0.0
aF0.0
aF0.0
aF0.0
aF0.0
aF0.0
aF0.0
aF0.0
aF0.0
aF0.0
aF0.0
aF0.0
aF0.0
aF0.0
aF0.0
aF0.04251386321626617
aF0.10306845003933911
aF0.1622191011235955
aF0.2451440053583389
aF0.33811475409836067
aF0.43040847201210286
aF0.5069508804448564
aF0.6286043829296425
aF0.7227414330218068
aF0.762114537444934
aF0.8127853881278538
atp216
sS'pt_genEles_gsfTrks_eta2p0_Seed1p0'
p217
((lp218
F0.001
aF0.0012589254117941675
aF0.001584893192461114
aF0.001995262314968879
aF0.0025118864315095794
aF0.0031622776601683794
aF0.003981071705534973
aF0.005011872336272725
aF0.00630957344480193
aF0.007943282347242814
aF0.01
aF0.012589254117941675
aF0.01584893192461114
aF0.0199526231496888
aF0.025118864315095808
aF0.03162277660168379
aF0.039810717055349734
aF0.05011872336272725
aF0.06309573444801933
aF0.07943282347242818
aF0.1
aF0.12589254117941676
aF0.15848931924611143
aF0.19952623149688808
aF0.25118864315095824
aF0.31622776601683794
aF0.3981071705534973
aF0.5011872336272725
aF0.6309573444801936
aF0.7943282347242822
aF1.0
aF1.2589254117941675
aF1.584893192461114
aF1.9952623149688808
aF2.5118864315095824
aF3.1622776601683795
aF3.981071705534973
aF5.011872336272725
aF6.309573444801936
aF7.943282347242821
aF10.0
a(lp219
F0.0
aF0.0
aF0.0
aF0.0
aF0.0
aF0.0
aF0.0
aF0.0
aF0.0
aF0.0
aF0.0
aF0.0
aF0.0
aF0.0
aF0.0
aF0.0
aF0.0
aF0.0
aF0.0
aF0.0
aF0.0
aF0.0
aF0.0
aF0.0
aF0.0
aF0.0
aF0.0
aF0.0
aF0.0
aF0.0
aF0.03225806451612903
aF0.06432748538011696
aF0.09326424870466321
aF0.16279069767441862
aF0.21428571428571427
aF0.3393939393939394
aF0.46153846153846156
aF0.5816326530612245
aF0.8955223880597015
aF0.8727272727272727
aF0.927536231884058
atp220
sS'pt_genEles_gsfTrks_eta1p4_Seed0p5'
p221
((lp222
F0.001
aF0.0012589254117941675
aF0.001584893192461114
aF0.001995262314968879
aF0.0025118864315095794
aF0.0031622776601683794
aF0.003981071705534973
aF0.005011872336272725
aF0.00630957344480193
aF0.007943282347242814
aF0.01
aF0.012589254117941675
aF0.01584893192461114
aF0.0199526231496888
aF0.025118864315095808
aF0.03162277660168379
aF0.039810717055349734
aF0.05011872336272725
aF0.06309573444801933
aF0.07943282347242818
aF0.1
aF0.12589254117941676
aF0.15848931924611143
aF0.19952623149688808
aF0.25118864315095824
aF0.31622776601683794
aF0.3981071705534973
aF0.5011872336272725
aF0.6309573444801936
aF0.7943282347242822
aF1.0
aF1.2589254117941675
aF1.584893192461114
aF1.9952623149688808
aF2.5118864315095824
aF3.1622776601683795
aF3.981071705534973
aF5.011872336272725
aF6.309573444801936
aF7.943282347242821
aF10.0
a(lp223
F0.0
aF0.0
aF0.0
aF0.0
aF0.0
aF0.0
aF0.0
aF0.0
aF0.0
aF0.0
aF0.0
aF0.0
aF0.0
aF0.0
aF0.0
aF0.0
aF0.0
aF0.0
aF0.0
aF0.0
aF0.0
aF0.0
aF0.07692307692307693
aF0.0
aF0.0
aF0.0
aF0.0
aF0.06382978723404255
aF0.1349206349206349
aF0.11578947368421053
aF0.15454545454545454
aF0.11363636363636363
aF0.18092105263157895
aF0.18902439024390244
aF0.22939068100358423
aF0.3358208955223881
aF0.3472803347280335
aF0.5235294117647059
aF0.6323529411764706
aF0.7471264367816092
aF0.8285714285714286
atp224
sS'pt_genEles_gsfEles_eta0p0_Seed1p0'
p225
((lp226
F0.001
aF0.0012589254117941675
aF0.001584893192461114
aF0.001995262314968879
aF0.0025118864315095794
aF0.0031622776601683794
aF0.003981071705534973
aF0.005011872336272725
aF0.00630957344480193
aF0.007943282347242814
aF0.01
aF0.012589254117941675
aF0.01584893192461114
aF0.0199526231496888
aF0.025118864315095808
aF0.03162277660168379
aF0.039810717055349734
aF0.05011872336272725
aF0.06309573444801933
aF0.07943282347242818
aF0.1
aF0.12589254117941676
aF0.15848931924611143
aF0.19952623149688808
aF0.25118864315095824
aF0.31622776601683794
aF0.3981071705534973
aF0.5011872336272725
aF0.6309573444801936
aF0.7943282347242822
aF1.0
aF1.2589254117941675
aF1.584893192461114
aF1.9952623149688808
aF2.5118864315095824
aF3.1622776601683795
aF3.981071705534973
aF5.011872336272725
aF6.309573444801936
aF7.943282347242821
aF10.0
a(lp227
F0.0
aF0.0
aF0.0
aF0.0
aF0.0
aF0.0
aF0.0
aF0.0
aF0.0
aF0.0
aF0.0
aF0.0
aF0.0
aF0.0
aF0.0
aF0.0
aF0.0
aF0.0
aF0.0
aF0.0
aF0.0
aF0.0
aF0.0
aF0.0
aF0.0
aF0.0
aF0.0
aF0.0
aF0.0
aF0.0
aF0.07506053268765134
aF0.18556701030927836
aF0.29239766081871343
aF0.42987249544626593
aF0.5168738898756661
aF0.625250501002004
aF0.6993006993006993
aF0.7841530054644809
aF0.8449612403100775
aF0.8630952380952381
aF0.8345323741007195
atp228
sS'pt_genEles_gsfTrks_eta0p0_Seed1p0'
p229
((lp230
F0.001
aF0.0012589254117941675
aF0.001584893192461114
aF0.001995262314968879
aF0.0025118864315095794
aF0.0031622776601683794
aF0.003981071705534973
aF0.005011872336272725
aF0.00630957344480193
aF0.007943282347242814
aF0.01
aF0.012589254117941675
aF0.01584893192461114
aF0.0199526231496888
aF0.025118864315095808
aF0.03162277660168379
aF0.039810717055349734
aF0.05011872336272725
aF0.06309573444801933
aF0.07943282347242818
aF0.1
aF0.12589254117941676
aF0.15848931924611143
aF0.19952623149688808
aF0.25118864315095824
aF0.31622776601683794
aF0.3981071705534973
aF0.5011872336272725
aF0.6309573444801936
aF0.7943282347242822
aF1.0
aF1.2589254117941675
aF1.584893192461114
aF1.9952623149688808
aF2.5118864315095824
aF3.1622776601683795
aF3.981071705534973
aF5.011872336272725
aF6.309573444801936
aF7.943282347242821
aF10.0
a(lp231
F0.0
aF0.0
aF0.0
aF0.0
aF0.0
aF0.0
aF0.0
aF0.0
aF0.0
aF0.0
aF0.0
aF0.0
aF0.0
aF0.0
aF0.0
aF0.0
aF0.0
aF0.0
aF0.0
aF0.0
aF0.0
aF0.0
aF0.0
aF0.0
aF0.0
aF0.0
aF0.0
aF0.005555555555555556
aF0.0
aF0.006872852233676976
aF0.18159806295399517
aF0.34845360824742266
aF0.43859649122807015
aF0.5683060109289617
aF0.605683836589698
aF0.7094188376753507
aF0.7622377622377622
aF0.8169398907103825
aF0.9186046511627907
aF0.8988095238095238
aF0.9064748201438849
atp232
sS'pt_genEles_gsfTrks_eta1p4_Seed2p0'
p233
((lp234
F0.001
aF0.0012589254117941675
aF0.001584893192461114
aF0.001995262314968879
aF0.0025118864315095794
aF0.0031622776601683794
aF0.003981071705534973
aF0.005011872336272725
aF0.00630957344480193
aF0.007943282347242814
aF0.01
aF0.012589254117941675
aF0.01584893192461114
aF0.0199526231496888
aF0.025118864315095808
aF0.03162277660168379
aF0.039810717055349734
aF0.05011872336272725
aF0.06309573444801933
aF0.07943282347242818
aF0.1
aF0.12589254117941676
aF0.15848931924611143
aF0.19952623149688808
aF0.25118864315095824
aF0.31622776601683794
aF0.3981071705534973
aF0.5011872336272725
aF0.6309573444801936
aF0.7943282347242822
aF1.0
aF1.2589254117941675
aF1.584893192461114
aF1.9952623149688808
aF2.5118864315095824
aF3.1622776601683795
aF3.981071705534973
aF5.011872336272725
aF6.309573444801936
aF7.943282347242821
aF10.0
a(lp235
F0.0
aF0.0
aF0.0
aF0.0
aF0.0
aF0.0
aF0.0
aF0.0
aF0.0
aF0.0
aF0.0
aF0.0
aF0.0
aF0.0
aF0.0
aF0.0
aF0.0
aF0.0
aF0.0
aF0.0
aF0.0
aF0.0
aF0.0
aF0.0
aF0.0
aF0.0
aF0.0
aF0.0
aF0.0
aF0.0
aF0.004524886877828055
aF0.0
aF0.0032258064516129032
aF0.06097560975609756
aF0.16783216783216784
aF0.3048327137546468
aF0.3276595744680851
aF0.5086705202312138
aF0.6119402985074627
aF0.7333333333333333
aF0.8201438848920863
atp236
sS'pt_genEles_gsfEles_etaall_Seed2p0'
p237
((lp238
F0.001
aF0.0012589254117941675
aF0.001584893192461114
aF0.001995262314968879
aF0.0025118864315095794
aF0.0031622776601683794
aF0.003981071705534973
aF0.005011872336272725
aF0.00630957344480193
aF0.007943282347242814
aF0.01
aF0.012589254117941675
aF0.01584893192461114
aF0.0199526231496888
aF0.025118864315095808
aF0.03162277660168379
aF0.039810717055349734
aF0.05011872336272725
aF0.06309573444801933
aF0.07943282347242818
aF0.1
aF0.12589254117941676
aF0.15848931924611143
aF0.19952623149688808
aF0.25118864315095824
aF0.31622776601683794
aF0.3981071705534973
aF0.5011872336272725
aF0.6309573444801936
aF0.7943282347242822
aF1.0
aF1.2589254117941675
aF1.584893192461114
aF1.9952623149688808
aF2.5118864315095824
aF3.1622776601683795
aF3.981071705534973
aF5.011872336272725
aF6.309573444801936
aF7.943282347242821
aF10.0
a(lp239
F0.0
aF0.0
aF0.0
aF0.0
aF0.0
aF0.0
aF0.0
aF0.0
aF0.0
aF0.0
aF0.0
aF0.0
aF0.0
aF0.0
aF0.0
aF0.0
aF0.0
aF0.0
aF0.0
aF0.0
aF0.0
aF0.0
aF0.0
aF0.0
aF0.0
aF0.0
aF0.0
aF0.0
aF0.0
aF0.0
aF0.0
aF0.0
aF0.0013315579227696406
aF0.19261213720316622
aF0.2895805142083897
aF0.4481751824817518
aF0.5124555160142349
aF0.6120689655172413
aF0.7098591549295775
aF0.7462121212121212
aF0.8085106382978723
atp240
s.